
bomb2:     file format elf32-i386


Disassembly of section .init:

080487f8 <_init>:
 80487f8:	55                   	push   %ebp
 80487f9:	89 e5                	mov    %esp,%ebp
 80487fb:	53                   	push   %ebx
 80487fc:	83 ec 04             	sub    $0x4,%esp
 80487ff:	e8 00 00 00 00       	call   8048804 <_init+0xc>
 8048804:	5b                   	pop    %ebx
 8048805:	81 c3 dc 28 00 00    	add    $0x28dc,%ebx
 804880b:	8b 93 fc ff ff ff    	mov    -0x4(%ebx),%edx
 8048811:	85 d2                	test   %edx,%edx
 8048813:	74 05                	je     804881a <_init+0x22>
 8048815:	e8 5e 00 00 00       	call   8048878 <__gmon_start__@plt>
 804881a:	e8 d1 02 00 00       	call   8048af0 <frame_dummy>
 804881f:	e8 0c 14 00 00       	call   8049c30 <__do_global_ctors_aux>
 8048824:	58                   	pop    %eax
 8048825:	5b                   	pop    %ebx
 8048826:	c9                   	leave  
 8048827:	c3                   	ret    

Disassembly of section .plt:

08048828 <__errno_location@plt-0x10>:
 8048828:	ff 35 e4 b0 04 08    	pushl  0x804b0e4
 804882e:	ff 25 e8 b0 04 08    	jmp    *0x804b0e8
 8048834:	00 00                	add    %al,(%eax)
	...

08048838 <__errno_location@plt>:
 8048838:	ff 25 ec b0 04 08    	jmp    *0x804b0ec
 804883e:	68 00 00 00 00       	push   $0x0
 8048843:	e9 e0 ff ff ff       	jmp    8048828 <_init+0x30>

08048848 <sprintf@plt>:
 8048848:	ff 25 f0 b0 04 08    	jmp    *0x804b0f0
 804884e:	68 08 00 00 00       	push   $0x8
 8048853:	e9 d0 ff ff ff       	jmp    8048828 <_init+0x30>

08048858 <connect@plt>:
 8048858:	ff 25 f4 b0 04 08    	jmp    *0x804b0f4
 804885e:	68 10 00 00 00       	push   $0x10
 8048863:	e9 c0 ff ff ff       	jmp    8048828 <_init+0x30>

08048868 <signal@plt>:
 8048868:	ff 25 f8 b0 04 08    	jmp    *0x804b0f8
 804886e:	68 18 00 00 00       	push   $0x18
 8048873:	e9 b0 ff ff ff       	jmp    8048828 <_init+0x30>

08048878 <__gmon_start__@plt>:
 8048878:	ff 25 fc b0 04 08    	jmp    *0x804b0fc
 804887e:	68 20 00 00 00       	push   $0x20
 8048883:	e9 a0 ff ff ff       	jmp    8048828 <_init+0x30>

08048888 <rewind@plt>:
 8048888:	ff 25 00 b1 04 08    	jmp    *0x804b100
 804888e:	68 28 00 00 00       	push   $0x28
 8048893:	e9 90 ff ff ff       	jmp    8048828 <_init+0x30>

08048898 <getenv@plt>:
 8048898:	ff 25 04 b1 04 08    	jmp    *0x804b104
 804889e:	68 30 00 00 00       	push   $0x30
 80488a3:	e9 80 ff ff ff       	jmp    8048828 <_init+0x30>

080488a8 <system@plt>:
 80488a8:	ff 25 08 b1 04 08    	jmp    *0x804b108
 80488ae:	68 38 00 00 00       	push   $0x38
 80488b3:	e9 70 ff ff ff       	jmp    8048828 <_init+0x30>

080488b8 <write@plt>:
 80488b8:	ff 25 0c b1 04 08    	jmp    *0x804b10c
 80488be:	68 40 00 00 00       	push   $0x40
 80488c3:	e9 60 ff ff ff       	jmp    8048828 <_init+0x30>

080488c8 <fgets@plt>:
 80488c8:	ff 25 10 b1 04 08    	jmp    *0x804b110
 80488ce:	68 48 00 00 00       	push   $0x48
 80488d3:	e9 50 ff ff ff       	jmp    8048828 <_init+0x30>

080488d8 <__libc_start_main@plt>:
 80488d8:	ff 25 14 b1 04 08    	jmp    *0x804b114
 80488de:	68 50 00 00 00       	push   $0x50
 80488e3:	e9 40 ff ff ff       	jmp    8048828 <_init+0x30>

080488e8 <tmpfile@plt>:
 80488e8:	ff 25 18 b1 04 08    	jmp    *0x804b118
 80488ee:	68 58 00 00 00       	push   $0x58
 80488f3:	e9 30 ff ff ff       	jmp    8048828 <_init+0x30>

080488f8 <strtol@plt>:
 80488f8:	ff 25 1c b1 04 08    	jmp    *0x804b11c
 80488fe:	68 60 00 00 00       	push   $0x60
 8048903:	e9 20 ff ff ff       	jmp    8048828 <_init+0x30>

08048908 <inet_pton@plt>:
 8048908:	ff 25 20 b1 04 08    	jmp    *0x804b120
 804890e:	68 68 00 00 00       	push   $0x68
 8048913:	e9 10 ff ff ff       	jmp    8048828 <_init+0x30>

08048918 <fflush@plt>:
 8048918:	ff 25 24 b1 04 08    	jmp    *0x804b124
 804891e:	68 70 00 00 00       	push   $0x70
 8048923:	e9 00 ff ff ff       	jmp    8048828 <_init+0x30>

08048928 <socket@plt>:
 8048928:	ff 25 28 b1 04 08    	jmp    *0x804b128
 804892e:	68 78 00 00 00       	push   $0x78
 8048933:	e9 f0 fe ff ff       	jmp    8048828 <_init+0x30>

08048938 <__ctype_b_loc@plt>:
 8048938:	ff 25 2c b1 04 08    	jmp    *0x804b12c
 804893e:	68 80 00 00 00       	push   $0x80
 8048943:	e9 e0 fe ff ff       	jmp    8048828 <_init+0x30>

08048948 <fclose@plt>:
 8048948:	ff 25 30 b1 04 08    	jmp    *0x804b130
 804894e:	68 88 00 00 00       	push   $0x88
 8048953:	e9 d0 fe ff ff       	jmp    8048828 <_init+0x30>

08048958 <bcopy@plt>:
 8048958:	ff 25 34 b1 04 08    	jmp    *0x804b134
 804895e:	68 90 00 00 00       	push   $0x90
 8048963:	e9 c0 fe ff ff       	jmp    8048828 <_init+0x30>

08048968 <dup@plt>:
 8048968:	ff 25 38 b1 04 08    	jmp    *0x804b138
 804896e:	68 98 00 00 00       	push   $0x98
 8048973:	e9 b0 fe ff ff       	jmp    8048828 <_init+0x30>

08048978 <fopen@plt>:
 8048978:	ff 25 3c b1 04 08    	jmp    *0x804b13c
 804897e:	68 a0 00 00 00       	push   $0xa0
 8048983:	e9 a0 fe ff ff       	jmp    8048828 <_init+0x30>

08048988 <strcpy@plt>:
 8048988:	ff 25 40 b1 04 08    	jmp    *0x804b140
 804898e:	68 a8 00 00 00       	push   $0xa8
 8048993:	e9 90 fe ff ff       	jmp    8048828 <_init+0x30>

08048998 <printf@plt>:
 8048998:	ff 25 44 b1 04 08    	jmp    *0x804b144
 804899e:	68 b0 00 00 00       	push   $0xb0
 80489a3:	e9 80 fe ff ff       	jmp    8048828 <_init+0x30>

080489a8 <close@plt>:
 80489a8:	ff 25 48 b1 04 08    	jmp    *0x804b148
 80489ae:	68 b8 00 00 00       	push   $0xb8
 80489b3:	e9 70 fe ff ff       	jmp    8048828 <_init+0x30>

080489b8 <fwrite@plt>:
 80489b8:	ff 25 4c b1 04 08    	jmp    *0x804b14c
 80489be:	68 c0 00 00 00       	push   $0xc0
 80489c3:	e9 60 fe ff ff       	jmp    8048828 <_init+0x30>

080489c8 <fprintf@plt>:
 80489c8:	ff 25 50 b1 04 08    	jmp    *0x804b150
 80489ce:	68 c8 00 00 00       	push   $0xc8
 80489d3:	e9 50 fe ff ff       	jmp    8048828 <_init+0x30>

080489d8 <cuserid@plt>:
 80489d8:	ff 25 54 b1 04 08    	jmp    *0x804b154
 80489de:	68 d0 00 00 00       	push   $0xd0
 80489e3:	e9 40 fe ff ff       	jmp    8048828 <_init+0x30>

080489e8 <fputc@plt>:
 80489e8:	ff 25 58 b1 04 08    	jmp    *0x804b158
 80489ee:	68 d8 00 00 00       	push   $0xd8
 80489f3:	e9 30 fe ff ff       	jmp    8048828 <_init+0x30>

080489f8 <sleep@plt>:
 80489f8:	ff 25 5c b1 04 08    	jmp    *0x804b15c
 80489fe:	68 e0 00 00 00       	push   $0xe0
 8048a03:	e9 20 fe ff ff       	jmp    8048828 <_init+0x30>

08048a08 <strcat@plt>:
 8048a08:	ff 25 60 b1 04 08    	jmp    *0x804b160
 8048a0e:	68 e8 00 00 00       	push   $0xe8
 8048a13:	e9 10 fe ff ff       	jmp    8048828 <_init+0x30>

08048a18 <puts@plt>:
 8048a18:	ff 25 64 b1 04 08    	jmp    *0x804b164
 8048a1e:	68 f0 00 00 00       	push   $0xf0
 8048a23:	e9 00 fe ff ff       	jmp    8048828 <_init+0x30>

08048a28 <sscanf@plt>:
 8048a28:	ff 25 68 b1 04 08    	jmp    *0x804b168
 8048a2e:	68 f8 00 00 00       	push   $0xf8
 8048a33:	e9 f0 fd ff ff       	jmp    8048828 <_init+0x30>

08048a38 <gethostbyname@plt>:
 8048a38:	ff 25 6c b1 04 08    	jmp    *0x804b16c
 8048a3e:	68 00 01 00 00       	push   $0x100
 8048a43:	e9 e0 fd ff ff       	jmp    8048828 <_init+0x30>

08048a48 <exit@plt>:
 8048a48:	ff 25 70 b1 04 08    	jmp    *0x804b170
 8048a4e:	68 08 01 00 00       	push   $0x108
 8048a53:	e9 d0 fd ff ff       	jmp    8048828 <_init+0x30>

Disassembly of section .text:

08048a60 <_start>:
 8048a60:	31 ed                	xor    %ebp,%ebp
 8048a62:	5e                   	pop    %esi
 8048a63:	89 e1                	mov    %esp,%ecx
 8048a65:	83 e4 f0             	and    $0xfffffff0,%esp
 8048a68:	50                   	push   %eax
 8048a69:	54                   	push   %esp
 8048a6a:	52                   	push   %edx
 8048a6b:	68 c8 9b 04 08       	push   $0x8049bc8
 8048a70:	68 cd 9b 04 08       	push   $0x8049bcd
 8048a75:	51                   	push   %ecx
 8048a76:	56                   	push   %esi
 8048a77:	68 14 8b 04 08       	push   $0x8048b14
 8048a7c:	e8 57 fe ff ff       	call   80488d8 <__libc_start_main@plt>
 8048a81:	f4                   	hlt    
 8048a82:	90                   	nop
 8048a83:	90                   	nop
 8048a84:	90                   	nop
 8048a85:	90                   	nop
 8048a86:	90                   	nop
 8048a87:	90                   	nop
 8048a88:	90                   	nop
 8048a89:	90                   	nop
 8048a8a:	90                   	nop
 8048a8b:	90                   	nop
 8048a8c:	90                   	nop
 8048a8d:	90                   	nop
 8048a8e:	90                   	nop
 8048a8f:	90                   	nop

08048a90 <__do_global_dtors_aux>:
 8048a90:	55                   	push   %ebp
 8048a91:	89 e5                	mov    %esp,%ebp
 8048a93:	53                   	push   %ebx
 8048a94:	83 ec 04             	sub    $0x4,%esp
 8048a97:	80 3d 04 b7 04 08 00 	cmpb   $0x0,0x804b704
 8048a9e:	75 3f                	jne    8048adf <__do_global_dtors_aux+0x4f>
 8048aa0:	a1 08 b7 04 08       	mov    0x804b708,%eax
 8048aa5:	bb 0c b0 04 08       	mov    $0x804b00c,%ebx
 8048aaa:	81 eb 08 b0 04 08    	sub    $0x804b008,%ebx
 8048ab0:	c1 fb 02             	sar    $0x2,%ebx
 8048ab3:	83 eb 01             	sub    $0x1,%ebx
 8048ab6:	39 d8                	cmp    %ebx,%eax
 8048ab8:	73 1e                	jae    8048ad8 <__do_global_dtors_aux+0x48>
 8048aba:	8d b6 00 00 00 00    	lea    0x0(%esi),%esi
 8048ac0:	83 c0 01             	add    $0x1,%eax
 8048ac3:	a3 08 b7 04 08       	mov    %eax,0x804b708
 8048ac8:	ff 14 85 08 b0 04 08 	call   *0x804b008(,%eax,4)
 8048acf:	a1 08 b7 04 08       	mov    0x804b708,%eax
 8048ad4:	39 d8                	cmp    %ebx,%eax
 8048ad6:	72 e8                	jb     8048ac0 <__do_global_dtors_aux+0x30>
 8048ad8:	c6 05 04 b7 04 08 01 	movb   $0x1,0x804b704
 8048adf:	83 c4 04             	add    $0x4,%esp
 8048ae2:	5b                   	pop    %ebx
 8048ae3:	5d                   	pop    %ebp
 8048ae4:	c3                   	ret    
 8048ae5:	8d 74 26 00          	lea    0x0(%esi,%eiz,1),%esi
 8048ae9:	8d bc 27 00 00 00 00 	lea    0x0(%edi,%eiz,1),%edi

08048af0 <frame_dummy>:
 8048af0:	55                   	push   %ebp
 8048af1:	89 e5                	mov    %esp,%ebp
 8048af3:	83 ec 18             	sub    $0x18,%esp
 8048af6:	a1 10 b0 04 08       	mov    0x804b010,%eax
 8048afb:	85 c0                	test   %eax,%eax
 8048afd:	74 12                	je     8048b11 <frame_dummy+0x21>
 8048aff:	b8 00 00 00 00       	mov    $0x0,%eax
 8048b04:	85 c0                	test   %eax,%eax
 8048b06:	74 09                	je     8048b11 <frame_dummy+0x21>
 8048b08:	c7 04 24 10 b0 04 08 	movl   $0x804b010,(%esp)
 8048b0f:	ff d0                	call   *%eax
 8048b11:	c9                   	leave  
 8048b12:	c3                   	ret    
 8048b13:	90                   	nop

08048b14 <main>:
 8048b14:	55                   	push   %ebp
 8048b15:	89 e5                	mov    %esp,%ebp
 8048b17:	83 e4 f0             	and    $0xfffffff0,%esp
 8048b1a:	56                   	push   %esi
 8048b1b:	53                   	push   %ebx
 8048b1c:	83 ec 18             	sub    $0x18,%esp
 8048b1f:	8b 45 08             	mov    0x8(%ebp),%eax
 8048b22:	8b 75 0c             	mov    0xc(%ebp),%esi
 8048b25:	83 f8 01             	cmp    $0x1,%eax
 8048b28:	75 0e                	jne    8048b38 <main+0x24>
 8048b2a:	8b 1d e0 b6 04 08    	mov    0x804b6e0,%ebx
 8048b30:	89 1d 10 b7 04 08    	mov    %ebx,0x804b710
 8048b36:	eb 65                	jmp    8048b9d <main+0x89>
 8048b38:	83 f8 02             	cmp    $0x2,%eax
 8048b3b:	75 42                	jne    8048b7f <main+0x6b>
 8048b3d:	8d 5e 04             	lea    0x4(%esi),%ebx
 8048b40:	c7 44 24 04 b2 9e 04 	movl   $0x8049eb2,0x4(%esp)
 8048b47:	08 
 8048b48:	8b 03                	mov    (%ebx),%eax
 8048b4a:	89 04 24             	mov    %eax,(%esp)
 8048b4d:	e8 26 fe ff ff       	call   8048978 <fopen@plt>
 8048b52:	a3 10 b7 04 08       	mov    %eax,0x804b710
 8048b57:	85 c0                	test   %eax,%eax
 8048b59:	75 42                	jne    8048b9d <main+0x89>
 8048b5b:	8b 03                	mov    (%ebx),%eax
 8048b5d:	89 44 24 08          	mov    %eax,0x8(%esp)
 8048b61:	8b 06                	mov    (%esi),%eax
 8048b63:	89 44 24 04          	mov    %eax,0x4(%esp)
 8048b67:	c7 04 24 88 9c 04 08 	movl   $0x8049c88,(%esp)
 8048b6e:	e8 25 fe ff ff       	call   8048998 <printf@plt>
 8048b73:	c7 04 24 08 00 00 00 	movl   $0x8,(%esp)
 8048b7a:	e8 c9 fe ff ff       	call   8048a48 <exit@plt>
 8048b7f:	8b 06                	mov    (%esi),%eax
 8048b81:	89 44 24 04          	mov    %eax,0x4(%esp)
 8048b85:	c7 04 24 a5 9c 04 08 	movl   $0x8049ca5,(%esp)
 8048b8c:	e8 07 fe ff ff       	call   8048998 <printf@plt>
 8048b91:	c7 04 24 08 00 00 00 	movl   $0x8,(%esp)
 8048b98:	e8 ab fe ff ff       	call   8048a48 <exit@plt>
 8048b9d:	e8 ec 0f 00 00       	call   8049b8e <initialize_bomb>
 8048ba2:	c7 04 24 0c 9d 04 08 	movl   $0x8049d0c,(%esp)
 8048ba9:	e8 6a fe ff ff       	call   8048a18 <puts@plt>
 8048bae:	c7 04 24 48 9d 04 08 	movl   $0x8049d48,(%esp)
 8048bb5:	e8 5e fe ff ff       	call   8048a18 <puts@plt>
 8048bba:	e8 7b 0d 00 00       	call   804993a <read_line>
 8048bbf:	89 04 24             	mov    %eax,(%esp)
 8048bc2:	e8 f2 04 00 00       	call   80490b9 <phase_1>
 8048bc7:	e8 be 0b 00 00       	call   804978a <phase_defused>
 8048bcc:	c7 04 24 74 9d 04 08 	movl   $0x8049d74,(%esp)
 8048bd3:	e8 40 fe ff ff       	call   8048a18 <puts@plt>
 8048bd8:	e8 5d 0d 00 00       	call   804993a <read_line>
 8048bdd:	89 04 24             	mov    %eax,(%esp)
 8048be0:	e8 7e 04 00 00       	call   8049063 <phase_2>
 8048be5:	e8 a0 0b 00 00       	call   804978a <phase_defused>
 8048bea:	c7 04 24 bf 9c 04 08 	movl   $0x8049cbf,(%esp)
 8048bf1:	e8 22 fe ff ff       	call   8048a18 <puts@plt>
 8048bf6:	e8 3f 0d 00 00       	call   804993a <read_line>
 8048bfb:	89 04 24             	mov    %eax,(%esp)
 8048bfe:	e8 ae 02 00 00       	call   8048eb1 <phase_3>
 8048c03:	e8 82 0b 00 00       	call   804978a <phase_defused>
 8048c08:	c7 04 24 dd 9c 04 08 	movl   $0x8049cdd,(%esp)
 8048c0f:	e8 04 fe ff ff       	call   8048a18 <puts@plt>
 8048c14:	e8 21 0d 00 00       	call   804993a <read_line>
 8048c19:	89 04 24             	mov    %eax,(%esp)
 8048c1c:	e8 3a 02 00 00       	call   8048e5b <phase_4>
 8048c21:	e8 64 0b 00 00       	call   804978a <phase_defused>
 8048c26:	c7 04 24 a0 9d 04 08 	movl   $0x8049da0,(%esp)
 8048c2d:	e8 e6 fd ff ff       	call   8048a18 <puts@plt>
 8048c32:	e8 03 0d 00 00       	call   804993a <read_line>
 8048c37:	89 04 24             	mov    %eax,(%esp)
 8048c3a:	e8 cb 01 00 00       	call   8048e0a <phase_5>
 8048c3f:	e8 46 0b 00 00       	call   804978a <phase_defused>
 8048c44:	c7 04 24 ec 9c 04 08 	movl   $0x8049cec,(%esp)
 8048c4b:	e8 c8 fd ff ff       	call   8048a18 <puts@plt>
 8048c50:	e8 e5 0c 00 00       	call   804993a <read_line>
 8048c55:	89 04 24             	mov    %eax,(%esp)
 8048c58:	e8 5f 01 00 00       	call   8048dbc <phase_6>
 8048c5d:	e8 28 0b 00 00       	call   804978a <phase_defused>
 8048c62:	b8 00 00 00 00       	mov    $0x0,%eax
 8048c67:	83 c4 18             	add    $0x18,%esp
 8048c6a:	5b                   	pop    %ebx
 8048c6b:	5e                   	pop    %esi
 8048c6c:	89 ec                	mov    %ebp,%esp
 8048c6e:	5d                   	pop    %ebp
 8048c6f:	c3                   	ret    

08048c70 <func4>:
 8048c70:	55                   	push   %ebp
 8048c71:	89 e5                	mov    %esp,%ebp
 8048c73:	53                   	push   %ebx
 8048c74:	83 ec 14             	sub    $0x14,%esp
 8048c77:	8b 5d 08             	mov    0x8(%ebp),%ebx
 8048c7a:	b8 01 00 00 00       	mov    $0x1,%eax
 8048c7f:	83 fb 01             	cmp    $0x1,%ebx
 8048c82:	7e 0e                	jle    8048c92 <func4+0x22>
 8048c84:	8d 43 ff             	lea    -0x1(%ebx),%eax
 8048c87:	89 04 24             	mov    %eax,(%esp)
 8048c8a:	e8 e1 ff ff ff       	call   8048c70 <func4>
 8048c8f:	0f af c3             	imul   %ebx,%eax
 8048c92:	83 c4 14             	add    $0x14,%esp
 8048c95:	5b                   	pop    %ebx
 8048c96:	5d                   	pop    %ebp
 8048c97:	c3                   	ret    

08048c98 <fun6>:
 8048c98:	55                   	push   %ebp
 8048c99:	89 e5                	mov    %esp,%ebp
 8048c9b:	57                   	push   %edi
 8048c9c:	56                   	push   %esi
 8048c9d:	53                   	push   %ebx
 8048c9e:	83 ec 04             	sub    $0x4,%esp
 8048ca1:	8b 45 08             	mov    0x8(%ebp),%eax
 8048ca4:	8b 78 08             	mov    0x8(%eax),%edi
 8048ca7:	c7 40 08 00 00 00 00 	movl   $0x0,0x8(%eax)
 8048cae:	89 45 f0             	mov    %eax,-0x10(%ebp)
 8048cb1:	89 c3                	mov    %eax,%ebx
 8048cb3:	89 c6                	mov    %eax,%esi
 8048cb5:	85 ff                	test   %edi,%edi
 8048cb7:	75 35                	jne    8048cee <fun6+0x56>
 8048cb9:	eb 3f                	jmp    8048cfa <fun6+0x62>
 8048cbb:	89 de                	mov    %ebx,%esi
 8048cbd:	8b 5b 08             	mov    0x8(%ebx),%ebx
 8048cc0:	85 db                	test   %ebx,%ebx
 8048cc2:	74 06                	je     8048cca <fun6+0x32>
 8048cc4:	39 03                	cmp    %eax,(%ebx)
 8048cc6:	66 90                	xchg   %ax,%ax
 8048cc8:	7f f1                	jg     8048cbb <fun6+0x23>
 8048cca:	39 de                	cmp    %ebx,%esi
 8048ccc:	75 0c                	jne    8048cda <fun6+0x42>
 8048cce:	89 7d f0             	mov    %edi,-0x10(%ebp)
 8048cd1:	8d b4 26 00 00 00 00 	lea    0x0(%esi,%eiz,1),%esi
 8048cd8:	eb 03                	jmp    8048cdd <fun6+0x45>
 8048cda:	89 7e 08             	mov    %edi,0x8(%esi)
 8048cdd:	8b 77 08             	mov    0x8(%edi),%esi
 8048ce0:	89 5f 08             	mov    %ebx,0x8(%edi)
 8048ce3:	85 f6                	test   %esi,%esi
 8048ce5:	74 13                	je     8048cfa <fun6+0x62>
 8048ce7:	89 f7                	mov    %esi,%edi
 8048ce9:	8b 5d f0             	mov    -0x10(%ebp),%ebx
 8048cec:	89 de                	mov    %ebx,%esi
 8048cee:	85 db                	test   %ebx,%ebx
 8048cf0:	74 d8                	je     8048cca <fun6+0x32>
 8048cf2:	8b 07                	mov    (%edi),%eax
 8048cf4:	39 03                	cmp    %eax,(%ebx)
 8048cf6:	7f c3                	jg     8048cbb <fun6+0x23>
 8048cf8:	eb d0                	jmp    8048cca <fun6+0x32>
 8048cfa:	8b 45 f0             	mov    -0x10(%ebp),%eax
 8048cfd:	83 c4 04             	add    $0x4,%esp
 8048d00:	5b                   	pop    %ebx
 8048d01:	5e                   	pop    %esi
 8048d02:	5f                   	pop    %edi
 8048d03:	5d                   	pop    %ebp
 8048d04:	c3                   	ret    

08048d05 <fun7>:
 8048d05:	55                   	push   %ebp
 8048d06:	89 e5                	mov    %esp,%ebp
 8048d08:	53                   	push   %ebx
 8048d09:	83 ec 14             	sub    $0x14,%esp
 8048d0c:	8b 55 08             	mov    0x8(%ebp),%edx
 8048d0f:	8b 4d 0c             	mov    0xc(%ebp),%ecx
 8048d12:	b8 ff ff ff ff       	mov    $0xffffffff,%eax
 8048d17:	85 d2                	test   %edx,%edx
 8048d19:	74 35                	je     8048d50 <fun7+0x4b>
 8048d1b:	8b 1a                	mov    (%edx),%ebx
 8048d1d:	39 cb                	cmp    %ecx,%ebx
 8048d1f:	7e 13                	jle    8048d34 <fun7+0x2f>
 8048d21:	89 4c 24 04          	mov    %ecx,0x4(%esp)
 8048d25:	8b 42 04             	mov    0x4(%edx),%eax
 8048d28:	89 04 24             	mov    %eax,(%esp)
 8048d2b:	e8 d5 ff ff ff       	call   8048d05 <fun7>
 8048d30:	01 c0                	add    %eax,%eax
 8048d32:	eb 1c                	jmp    8048d50 <fun7+0x4b>
 8048d34:	b8 00 00 00 00       	mov    $0x0,%eax
 8048d39:	39 cb                	cmp    %ecx,%ebx
 8048d3b:	74 13                	je     8048d50 <fun7+0x4b>
 8048d3d:	89 4c 24 04          	mov    %ecx,0x4(%esp)
 8048d41:	8b 42 08             	mov    0x8(%edx),%eax
 8048d44:	89 04 24             	mov    %eax,(%esp)
 8048d47:	e8 b9 ff ff ff       	call   8048d05 <fun7>
 8048d4c:	8d 44 00 01          	lea    0x1(%eax,%eax,1),%eax
 8048d50:	83 c4 14             	add    $0x14,%esp
 8048d53:	5b                   	pop    %ebx
 8048d54:	5d                   	pop    %ebp
 8048d55:	c3                   	ret    

08048d56 <secret_phase>:
 8048d56:	55                   	push   %ebp
 8048d57:	89 e5                	mov    %esp,%ebp
 8048d59:	53                   	push   %ebx
 8048d5a:	83 ec 14             	sub    $0x14,%esp
 8048d5d:	e8 d8 0b 00 00       	call   804993a <read_line>
 8048d62:	c7 44 24 08 0a 00 00 	movl   $0xa,0x8(%esp)
 8048d69:	00 
 8048d6a:	c7 44 24 04 00 00 00 	movl   $0x0,0x4(%esp)
 8048d71:	00 
 8048d72:	89 04 24             	mov    %eax,(%esp)
 8048d75:	e8 7e fb ff ff       	call   80488f8 <strtol@plt>
 8048d7a:	89 c3                	mov    %eax,%ebx
 8048d7c:	8d 40 ff             	lea    -0x1(%eax),%eax
 8048d7f:	3d e8 03 00 00       	cmp    $0x3e8,%eax
 8048d84:	76 05                	jbe    8048d8b <secret_phase+0x35>
 8048d86:	e8 94 0a 00 00       	call   804981f <explode_bomb>
 8048d8b:	89 5c 24 04          	mov    %ebx,0x4(%esp)
 8048d8f:	c7 04 24 d4 b6 04 08 	movl   $0x804b6d4,(%esp)
 8048d96:	e8 6a ff ff ff       	call   8048d05 <fun7>
 8048d9b:	83 f8 01             	cmp    $0x1,%eax
 8048d9e:	74 05                	je     8048da5 <secret_phase+0x4f>
 8048da0:	e8 7a 0a 00 00       	call   804981f <explode_bomb>
 8048da5:	c7 04 24 c4 9d 04 08 	movl   $0x8049dc4,(%esp)
 8048dac:	e8 67 fc ff ff       	call   8048a18 <puts@plt>
 8048db1:	e8 d4 09 00 00       	call   804978a <phase_defused>
 8048db6:	83 c4 14             	add    $0x14,%esp
 8048db9:	5b                   	pop    %ebx
 8048dba:	5d                   	pop    %ebp
 8048dbb:	c3                   	ret    

08048dbc <phase_6>:
 8048dbc:	55                   	push   %ebp
 8048dbd:	89 e5                	mov    %esp,%ebp
 8048dbf:	83 ec 18             	sub    $0x18,%esp
 8048dc2:	89 5d f8             	mov    %ebx,-0x8(%ebp)
 8048dc5:	89 75 fc             	mov    %esi,-0x4(%ebp)
 8048dc8:	c7 44 24 08 0a 00 00 	movl   $0xa,0x8(%esp)
 8048dcf:	00 
 8048dd0:	c7 44 24 04 00 00 00 	movl   $0x0,0x4(%esp)
 8048dd7:	00 
 8048dd8:	8b 45 08             	mov    0x8(%ebp),%eax
 8048ddb:	89 04 24             	mov    %eax,(%esp)
 8048dde:	e8 15 fb ff ff       	call   80488f8 <strtol@plt>
 8048de3:	89 c6                	mov    %eax,%esi
 8048de5:	c7 04 24 20 b6 04 08 	movl   $0x804b620,(%esp)
 8048dec:	e8 a7 fe ff ff       	call   8048c98 <fun6>
 8048df1:	8b 58 08             	mov    0x8(%eax),%ebx
 8048df4:	8b 43 08             	mov    0x8(%ebx),%eax
 8048df7:	39 30                	cmp    %esi,(%eax)
 8048df9:	74 05                	je     8048e00 <phase_6+0x44>
 8048dfb:	e8 1f 0a 00 00       	call   804981f <explode_bomb>
 8048e00:	8b 5d f8             	mov    -0x8(%ebp),%ebx
 8048e03:	8b 75 fc             	mov    -0x4(%ebp),%esi
 8048e06:	89 ec                	mov    %ebp,%esp
 8048e08:	5d                   	pop    %ebp
 8048e09:	c3                   	ret    

08048e0a <phase_5>:
 8048e0a:	55                   	push   %ebp
 8048e0b:	89 e5                	mov    %esp,%ebp
 8048e0d:	57                   	push   %edi
 8048e0e:	56                   	push   %esi
 8048e0f:	53                   	push   %ebx
 8048e10:	83 ec 1c             	sub    $0x1c,%esp
 8048e13:	8b 7d 08             	mov    0x8(%ebp),%edi
 8048e16:	89 3c 24             	mov    %edi,(%esp)
 8048e19:	e8 d2 02 00 00       	call   80490f0 <string_length>
 8048e1e:	83 f8 06             	cmp    $0x6,%eax
 8048e21:	74 05                	je     8048e28 <phase_5+0x1e>
 8048e23:	e8 f7 09 00 00       	call   804981f <explode_bomb>
 8048e28:	be 00 00 00 00       	mov    $0x0,%esi
 8048e2d:	bb 00 00 00 00       	mov    $0x0,%ebx
 8048e32:	b8 60 9e 04 08       	mov    $0x8049e60,%eax
 8048e37:	0f be 14 1f          	movsbl (%edi,%ebx,1),%edx
 8048e3b:	83 e2 0f             	and    $0xf,%edx
 8048e3e:	03 34 90             	add    (%eax,%edx,4),%esi
 8048e41:	83 c3 01             	add    $0x1,%ebx
 8048e44:	83 fb 06             	cmp    $0x6,%ebx
 8048e47:	75 ee                	jne    8048e37 <phase_5+0x2d>
 8048e49:	83 fe 45             	cmp    $0x45,%esi
 8048e4c:	74 05                	je     8048e53 <phase_5+0x49>
 8048e4e:	e8 cc 09 00 00       	call   804981f <explode_bomb>
 8048e53:	83 c4 1c             	add    $0x1c,%esp
 8048e56:	5b                   	pop    %ebx
 8048e57:	5e                   	pop    %esi
 8048e58:	5f                   	pop    %edi
 8048e59:	5d                   	pop    %ebp
 8048e5a:	c3                   	ret    

08048e5b <phase_4>:
 8048e5b:	55                   	push   %ebp
 8048e5c:	89 e5                	mov    %esp,%ebp
 8048e5e:	53                   	push   %ebx
 8048e5f:	83 ec 24             	sub    $0x24,%esp
 8048e62:	8d 45 f4             	lea    -0xc(%ebp),%eax
 8048e65:	89 44 24 08          	mov    %eax,0x8(%esp)
 8048e69:	c7 44 24 04 34 9e 04 	movl   $0x8049e34,0x4(%esp)
 8048e70:	08 
 8048e71:	8b 45 08             	mov    0x8(%ebp),%eax
 8048e74:	89 04 24             	mov    %eax,(%esp)
 8048e77:	e8 ac fb ff ff       	call   8048a28 <sscanf@plt>
 8048e7c:	83 f8 01             	cmp    $0x1,%eax
 8048e7f:	75 06                	jne    8048e87 <phase_4+0x2c>
 8048e81:	83 7d f4 00          	cmpl   $0x0,-0xc(%ebp)
 8048e85:	7f 06                	jg     8048e8d <phase_4+0x32>
 8048e87:	90                   	nop
 8048e88:	e8 92 09 00 00       	call   804981f <explode_bomb>
 8048e8d:	8b 5d f4             	mov    -0xc(%ebp),%ebx
 8048e90:	89 1c 24             	mov    %ebx,(%esp)
 8048e93:	e8 d8 fd ff ff       	call   8048c70 <func4>
 8048e98:	3d b0 13 00 00       	cmp    $0x13b0,%eax
 8048e9d:	74 05                	je     8048ea4 <phase_4+0x49>
 8048e9f:	e8 7b 09 00 00       	call   804981f <explode_bomb>
 8048ea4:	83 c4 24             	add    $0x24,%esp
 8048ea7:	5b                   	pop    %ebx
 8048ea8:	5d                   	pop    %ebp
 8048ea9:	8d b4 26 00 00 00 00 	lea    0x0(%esi,%eiz,1),%esi
 8048eb0:	c3                   	ret    

08048eb1 <phase_3>:
 8048eb1:	55                   	push   %ebp
 8048eb2:	89 e5                	mov    %esp,%ebp
 8048eb4:	53                   	push   %ebx
 8048eb5:	83 ec 34             	sub    $0x34,%esp
 8048eb8:	8d 45 f0             	lea    -0x10(%ebp),%eax
 8048ebb:	89 44 24 10          	mov    %eax,0x10(%esp)
 8048ebf:	8d 45 ef             	lea    -0x11(%ebp),%eax
 8048ec2:	89 44 24 0c          	mov    %eax,0xc(%esp)
 8048ec6:	8d 45 f4             	lea    -0xc(%ebp),%eax
 8048ec9:	89 44 24 08          	mov    %eax,0x8(%esp)
 8048ecd:	c7 44 24 04 2e 9e 04 	movl   $0x8049e2e,0x4(%esp)
 8048ed4:	08 
 8048ed5:	8b 45 08             	mov    0x8(%ebp),%eax
 8048ed8:	89 04 24             	mov    %eax,(%esp)
 8048edb:	e8 48 fb ff ff       	call   8048a28 <sscanf@plt>
 8048ee0:	83 f8 02             	cmp    $0x2,%eax
 8048ee3:	7f 05                	jg     8048eea <phase_3+0x39>
 8048ee5:	e8 35 09 00 00       	call   804981f <explode_bomb>
 8048eea:	83 7d f4 07          	cmpl   $0x7,-0xc(%ebp)
 8048eee:	66 90                	xchg   %ax,%ax
 8048ef0:	0f 87 34 01 00 00    	ja     804902a <phase_3+0x179>
 8048ef6:	8b 5d f4             	mov    -0xc(%ebp),%ebx
 8048ef9:	8d b4 26 00 00 00 00 	lea    0x0(%esi,%eiz,1),%esi
 8048f00:	ff 24 9d 40 9e 04 08 	jmp    *0x8049e40(,%ebx,4)
 8048f07:	81 7d f0 b0 00 00 00 	cmpl   $0xb0,-0x10(%ebp)
 8048f0e:	66 90                	xchg   %ax,%ax
 8048f10:	0f 84 2c 01 00 00    	je     8049042 <phase_3+0x191>
 8048f16:	66 90                	xchg   %ax,%ax
 8048f18:	e8 02 09 00 00       	call   804981f <explode_bomb>
 8048f1d:	bb 79 00 00 00       	mov    $0x79,%ebx
 8048f22:	8d b6 00 00 00 00    	lea    0x0(%esi),%esi
 8048f28:	e9 1a 01 00 00       	jmp    8049047 <phase_3+0x196>
 8048f2d:	bb 70 00 00 00       	mov    $0x70,%ebx
 8048f32:	81 7d f0 78 02 00 00 	cmpl   $0x278,-0x10(%ebp)
 8048f39:	8d b4 26 00 00 00 00 	lea    0x0(%esi,%eiz,1),%esi
 8048f40:	0f 84 01 01 00 00    	je     8049047 <phase_3+0x196>
 8048f46:	66 90                	xchg   %ax,%ax
 8048f48:	e8 d2 08 00 00       	call   804981f <explode_bomb>
 8048f4d:	8d 76 00             	lea    0x0(%esi),%esi
 8048f50:	e9 f2 00 00 00       	jmp    8049047 <phase_3+0x196>
 8048f55:	bb 68 00 00 00       	mov    $0x68,%ebx
 8048f5a:	81 7d f0 cf 02 00 00 	cmpl   $0x2cf,-0x10(%ebp)
 8048f61:	8d b4 26 00 00 00 00 	lea    0x0(%esi,%eiz,1),%esi
 8048f68:	0f 84 d9 00 00 00    	je     8049047 <phase_3+0x196>
 8048f6e:	66 90                	xchg   %ax,%ax
 8048f70:	e8 aa 08 00 00       	call   804981f <explode_bomb>
 8048f75:	8d 76 00             	lea    0x0(%esi),%esi
 8048f78:	e9 ca 00 00 00       	jmp    8049047 <phase_3+0x196>
 8048f7d:	81 7d f0 a5 01 00 00 	cmpl   $0x1a5,-0x10(%ebp)
 8048f84:	8d 74 26 00          	lea    0x0(%esi,%eiz,1),%esi
 8048f88:	0f 84 b4 00 00 00    	je     8049042 <phase_3+0x191>
 8048f8e:	66 90                	xchg   %ax,%ax
 8048f90:	e8 8a 08 00 00       	call   804981f <explode_bomb>
 8048f95:	bb 79 00 00 00       	mov    $0x79,%ebx
 8048f9a:	8d b6 00 00 00 00    	lea    0x0(%esi),%esi
 8048fa0:	e9 a2 00 00 00       	jmp    8049047 <phase_3+0x196>
 8048fa5:	bb 67 00 00 00       	mov    $0x67,%ebx
 8048faa:	81 7d f0 f8 01 00 00 	cmpl   $0x1f8,-0x10(%ebp)
 8048fb1:	8d b4 26 00 00 00 00 	lea    0x0(%esi,%eiz,1),%esi
 8048fb8:	0f 84 89 00 00 00    	je     8049047 <phase_3+0x196>
 8048fbe:	66 90                	xchg   %ax,%ax
 8048fc0:	e8 5a 08 00 00       	call   804981f <explode_bomb>
 8048fc5:	8d 76 00             	lea    0x0(%esi),%esi
 8048fc8:	eb 7d                	jmp    8049047 <phase_3+0x196>
 8048fca:	bb 61 00 00 00       	mov    $0x61,%ebx
 8048fcf:	81 7d f0 07 01 00 00 	cmpl   $0x107,-0x10(%ebp)
 8048fd6:	66 90                	xchg   %ax,%ax
 8048fd8:	74 6d                	je     8049047 <phase_3+0x196>
 8048fda:	8d b6 00 00 00 00    	lea    0x0(%esi),%esi
 8048fe0:	e8 3a 08 00 00       	call   804981f <explode_bomb>
 8048fe5:	8d 76 00             	lea    0x0(%esi),%esi
 8048fe8:	eb 5d                	jmp    8049047 <phase_3+0x196>
 8048fea:	bb 64 00 00 00       	mov    $0x64,%ebx
 8048fef:	81 7d f0 b3 02 00 00 	cmpl   $0x2b3,-0x10(%ebp)
 8048ff6:	66 90                	xchg   %ax,%ax
 8048ff8:	74 4d                	je     8049047 <phase_3+0x196>
 8048ffa:	8d b6 00 00 00 00    	lea    0x0(%esi),%esi
 8049000:	e8 1a 08 00 00       	call   804981f <explode_bomb>
 8049005:	8d 76 00             	lea    0x0(%esi),%esi
 8049008:	eb 3d                	jmp    8049047 <phase_3+0x196>
 804900a:	bb 6d 00 00 00       	mov    $0x6d,%ebx
 804900f:	81 7d f0 e0 03 00 00 	cmpl   $0x3e0,-0x10(%ebp)
 8049016:	66 90                	xchg   %ax,%ax
 8049018:	74 2d                	je     8049047 <phase_3+0x196>
 804901a:	8d b6 00 00 00 00    	lea    0x0(%esi),%esi
 8049020:	e8 fa 07 00 00       	call   804981f <explode_bomb>
 8049025:	8d 76 00             	lea    0x0(%esi),%esi
 8049028:	eb 1d                	jmp    8049047 <phase_3+0x196>
 804902a:	8d b6 00 00 00 00    	lea    0x0(%esi),%esi
 8049030:	e8 ea 07 00 00       	call   804981f <explode_bomb>
 8049035:	bb 65 00 00 00       	mov    $0x65,%ebx
 804903a:	8d b6 00 00 00 00    	lea    0x0(%esi),%esi
 8049040:	eb 05                	jmp    8049047 <phase_3+0x196>
 8049042:	bb 79 00 00 00       	mov    $0x79,%ebx
 8049047:	3a 5d ef             	cmp    -0x11(%ebp),%bl
 804904a:	8d b6 00 00 00 00    	lea    0x0(%esi),%esi
 8049050:	74 0b                	je     804905d <phase_3+0x1ac>
 8049052:	8d b6 00 00 00 00    	lea    0x0(%esi),%esi
 8049058:	e8 c2 07 00 00       	call   804981f <explode_bomb>
 804905d:	83 c4 34             	add    $0x34,%esp
 8049060:	5b                   	pop    %ebx
 8049061:	5d                   	pop    %ebp
 8049062:	c3                   	ret    

08049063 <phase_2>:
 8049063:	55                   	push   %ebp
 8049064:	89 e5                	mov    %esp,%ebp
 8049066:	56                   	push   %esi
 8049067:	53                   	push   %ebx
 8049068:	83 ec 30             	sub    $0x30,%esp
 804906b:	8d 45 e0             	lea    -0x20(%ebp),%eax
 804906e:	89 44 24 04          	mov    %eax,0x4(%esp)
 8049072:	8b 45 08             	mov    0x8(%ebp),%eax
 8049075:	89 04 24             	mov    %eax,(%esp)
 8049078:	e8 e4 07 00 00       	call   8049861 <read_six_numbers>
 804907d:	83 7d e0 01          	cmpl   $0x1,-0x20(%ebp)
 8049081:	74 05                	je     8049088 <phase_2+0x25>
 8049083:	e8 97 07 00 00       	call   804981f <explode_bomb>
 8049088:	bb 01 00 00 00       	mov    $0x1,%ebx
 804908d:	8d 75 e0             	lea    -0x20(%ebp),%esi
 8049090:	89 d8                	mov    %ebx,%eax
 8049092:	83 c3 01             	add    $0x1,%ebx
 8049095:	89 da                	mov    %ebx,%edx
 8049097:	0f af 54 86 fc       	imul   -0x4(%esi,%eax,4),%edx
 804909c:	39 14 86             	cmp    %edx,(%esi,%eax,4)
 804909f:	74 05                	je     80490a6 <phase_2+0x43>
 80490a1:	e8 79 07 00 00       	call   804981f <explode_bomb>
 80490a6:	83 fb 06             	cmp    $0x6,%ebx
 80490a9:	75 e5                	jne    8049090 <phase_2+0x2d>
 80490ab:	83 c4 30             	add    $0x30,%esp
 80490ae:	5b                   	pop    %ebx
 80490af:	5e                   	pop    %esi
 80490b0:	5d                   	pop    %ebp
 80490b1:	8d b4 26 00 00 00 00 	lea    0x0(%esi,%eiz,1),%esi
 80490b8:	c3                   	ret    

080490b9 <phase_1>:
 80490b9:	55                   	push   %ebp
 80490ba:	89 e5                	mov    %esp,%ebp
 80490bc:	83 ec 18             	sub    $0x18,%esp
 80490bf:	c7 44 24 04 ec 9d 04 	movl   $0x8049dec,0x4(%esp)
 80490c6:	08 
 80490c7:	8b 45 08             	mov    0x8(%ebp),%eax
 80490ca:	89 04 24             	mov    %eax,(%esp)
 80490cd:	e8 3d 00 00 00       	call   804910f <strings_not_equal>
 80490d2:	85 c0                	test   %eax,%eax
 80490d4:	74 05                	je     80490db <phase_1+0x22>
 80490d6:	e8 44 07 00 00       	call   804981f <explode_bomb>
 80490db:	c9                   	leave  
 80490dc:	8d 74 26 00          	lea    0x0(%esi,%eiz,1),%esi
 80490e0:	c3                   	ret    
 80490e1:	90                   	nop
 80490e2:	90                   	nop
 80490e3:	90                   	nop
 80490e4:	90                   	nop
 80490e5:	90                   	nop
 80490e6:	90                   	nop
 80490e7:	90                   	nop
 80490e8:	90                   	nop
 80490e9:	90                   	nop
 80490ea:	90                   	nop
 80490eb:	90                   	nop
 80490ec:	90                   	nop
 80490ed:	90                   	nop
 80490ee:	90                   	nop
 80490ef:	90                   	nop

080490f0 <string_length>:
 80490f0:	55                   	push   %ebp
 80490f1:	89 e5                	mov    %esp,%ebp
 80490f3:	53                   	push   %ebx
 80490f4:	8b 45 08             	mov    0x8(%ebp),%eax
 80490f7:	bb 00 00 00 00       	mov    $0x0,%ebx
 80490fc:	80 38 00             	cmpb   $0x0,(%eax)
 80490ff:	74 09                	je     804910a <string_length+0x1a>
 8049101:	83 c3 01             	add    $0x1,%ebx
 8049104:	80 3c 18 00          	cmpb   $0x0,(%eax,%ebx,1)
 8049108:	75 f7                	jne    8049101 <string_length+0x11>
 804910a:	89 d8                	mov    %ebx,%eax
 804910c:	5b                   	pop    %ebx
 804910d:	5d                   	pop    %ebp
 804910e:	c3                   	ret    

0804910f <strings_not_equal>:
 804910f:	55                   	push   %ebp
 8049110:	89 e5                	mov    %esp,%ebp
 8049112:	57                   	push   %edi
 8049113:	56                   	push   %esi
 8049114:	53                   	push   %ebx
 8049115:	83 ec 04             	sub    $0x4,%esp
 8049118:	8b 5d 08             	mov    0x8(%ebp),%ebx
 804911b:	8b 75 0c             	mov    0xc(%ebp),%esi
 804911e:	89 1c 24             	mov    %ebx,(%esp)
 8049121:	e8 ca ff ff ff       	call   80490f0 <string_length>
 8049126:	89 c7                	mov    %eax,%edi
 8049128:	89 34 24             	mov    %esi,(%esp)
 804912b:	e8 c0 ff ff ff       	call   80490f0 <string_length>
 8049130:	39 c7                	cmp    %eax,%edi
 8049132:	75 2d                	jne    8049161 <strings_not_equal+0x52>
 8049134:	0f b6 13             	movzbl (%ebx),%edx
 8049137:	84 d2                	test   %dl,%dl
 8049139:	74 2f                	je     804916a <strings_not_equal+0x5b>
 804913b:	b8 00 00 00 00       	mov    $0x0,%eax
 8049140:	3a 16                	cmp    (%esi),%dl
 8049142:	74 12                	je     8049156 <strings_not_equal+0x47>
 8049144:	8d 74 26 00          	lea    0x0(%esi,%eiz,1),%esi
 8049148:	eb 17                	jmp    8049161 <strings_not_equal+0x52>
 804914a:	0f b6 4c 06 01       	movzbl 0x1(%esi,%eax,1),%ecx
 804914f:	83 c0 01             	add    $0x1,%eax
 8049152:	38 ca                	cmp    %cl,%dl
 8049154:	75 0b                	jne    8049161 <strings_not_equal+0x52>
 8049156:	0f b6 54 03 01       	movzbl 0x1(%ebx,%eax,1),%edx
 804915b:	84 d2                	test   %dl,%dl
 804915d:	75 eb                	jne    804914a <strings_not_equal+0x3b>
 804915f:	eb 09                	jmp    804916a <strings_not_equal+0x5b>
 8049161:	b8 01 00 00 00       	mov    $0x1,%eax
 8049166:	66 90                	xchg   %ax,%ax
 8049168:	eb 05                	jmp    804916f <strings_not_equal+0x60>
 804916a:	b8 00 00 00 00       	mov    $0x0,%eax
 804916f:	83 c4 04             	add    $0x4,%esp
 8049172:	5b                   	pop    %ebx
 8049173:	5e                   	pop    %esi
 8049174:	5f                   	pop    %edi
 8049175:	5d                   	pop    %ebp
 8049176:	66 90                	xchg   %ax,%ax
 8049178:	c3                   	ret    

08049179 <send_msg_2>:
 8049179:	55                   	push   %ebp
 804917a:	89 e5                	mov    %esp,%ebp
 804917c:	57                   	push   %edi
 804917d:	56                   	push   %esi
 804917e:	53                   	push   %ebx
 804917f:	81 ec 8c 00 00 00    	sub    $0x8c,%esp
 8049185:	c7 04 24 00 00 00 00 	movl   $0x0,(%esp)
 804918c:	e8 d7 f7 ff ff       	call   8048968 <dup@plt>
 8049191:	89 45 94             	mov    %eax,-0x6c(%ebp)
 8049194:	83 f8 ff             	cmp    $0xffffffff,%eax
 8049197:	75 18                	jne    80491b1 <send_msg_2+0x38>
 8049199:	c7 04 24 a0 9e 04 08 	movl   $0x8049ea0,(%esp)
 80491a0:	e8 73 f8 ff ff       	call   8048a18 <puts@plt>
 80491a5:	c7 04 24 08 00 00 00 	movl   $0x8,(%esp)
 80491ac:	e8 97 f8 ff ff       	call   8048a48 <exit@plt>
 80491b1:	c7 04 24 00 00 00 00 	movl   $0x0,(%esp)
 80491b8:	e8 eb f7 ff ff       	call   80489a8 <close@plt>
 80491bd:	83 f8 ff             	cmp    $0xffffffff,%eax
 80491c0:	75 18                	jne    80491da <send_msg_2+0x61>
 80491c2:	c7 04 24 b4 9e 04 08 	movl   $0x8049eb4,(%esp)
 80491c9:	e8 4a f8 ff ff       	call   8048a18 <puts@plt>
 80491ce:	c7 04 24 08 00 00 00 	movl   $0x8,(%esp)
 80491d5:	e8 6e f8 ff ff       	call   8048a48 <exit@plt>
 80491da:	e8 09 f7 ff ff       	call   80488e8 <tmpfile@plt>
 80491df:	89 c7                	mov    %eax,%edi
 80491e1:	85 c0                	test   %eax,%eax
 80491e3:	75 18                	jne    80491fd <send_msg_2+0x84>
 80491e5:	c7 04 24 c7 9e 04 08 	movl   $0x8049ec7,(%esp)
 80491ec:	e8 27 f8 ff ff       	call   8048a18 <puts@plt>
 80491f1:	c7 04 24 08 00 00 00 	movl   $0x8,(%esp)
 80491f8:	e8 4b f8 ff ff       	call   8048a48 <exit@plt>
 80491fd:	89 44 24 0c          	mov    %eax,0xc(%esp)
 8049201:	c7 44 24 08 1b 00 00 	movl   $0x1b,0x8(%esp)
 8049208:	00 
 8049209:	c7 44 24 04 01 00 00 	movl   $0x1,0x4(%esp)
 8049210:	00 
 8049211:	c7 04 24 dc 9e 04 08 	movl   $0x8049edc,(%esp)
 8049218:	e8 9b f7 ff ff       	call   80489b8 <fwrite@plt>
 804921d:	89 7c 24 04          	mov    %edi,0x4(%esp)
 8049221:	c7 04 24 0a 00 00 00 	movl   $0xa,(%esp)
 8049228:	e8 bb f7 ff ff       	call   80489e8 <fputc@plt>
 804922d:	c7 04 24 00 00 00 00 	movl   $0x0,(%esp)
 8049234:	e8 9f f7 ff ff       	call   80489d8 <cuserid@plt>
 8049239:	85 c0                	test   %eax,%eax
 804923b:	75 15                	jne    8049252 <send_msg_2+0xd9>
 804923d:	8d 45 98             	lea    -0x68(%ebp),%eax
 8049240:	c7 00 6e 6f 62 6f    	movl   $0x6f626f6e,(%eax)
 8049246:	66 c7 40 04 64 79    	movw   $0x7964,0x4(%eax)
 804924c:	c6 40 06 00          	movb   $0x0,0x6(%eax)
 8049250:	eb 0f                	jmp    8049261 <send_msg_2+0xe8>
 8049252:	89 44 24 04          	mov    %eax,0x4(%esp)
 8049256:	8d 45 98             	lea    -0x68(%ebp),%eax
 8049259:	89 04 24             	mov    %eax,(%esp)
 804925c:	e8 27 f7 ff ff       	call   8048988 <strcpy@plt>
 8049261:	8b 15 0c b7 04 08    	mov    0x804b70c,%edx
 8049267:	b8 01 9f 04 08       	mov    $0x8049f01,%eax
 804926c:	83 7d 08 00          	cmpl   $0x0,0x8(%ebp)
 8049270:	75 05                	jne    8049277 <send_msg_2+0xfe>
 8049272:	b8 f8 9e 04 08       	mov    $0x8049ef8,%eax
 8049277:	89 54 24 18          	mov    %edx,0x18(%esp)
 804927b:	89 44 24 14          	mov    %eax,0x14(%esp)
 804927f:	8d 45 98             	lea    -0x68(%ebp),%eax
 8049282:	89 44 24 10          	mov    %eax,0x10(%esp)
 8049286:	8b 1d a0 b1 04 08    	mov    0x804b1a0,%ebx
 804928c:	89 5c 24 0c          	mov    %ebx,0xc(%esp)
 8049290:	c7 44 24 08 c0 b1 04 	movl   $0x804b1c0,0x8(%esp)
 8049297:	08 
 8049298:	c7 44 24 04 09 9f 04 	movl   $0x8049f09,0x4(%esp)
 804929f:	08 
 80492a0:	89 3c 24             	mov    %edi,(%esp)
 80492a3:	e8 20 f7 ff ff       	call   80489c8 <fprintf@plt>
 80492a8:	83 3d 0c b7 04 08 00 	cmpl   $0x0,0x804b70c
 80492af:	7e 48                	jle    80492f9 <send_msg_2+0x180>
 80492b1:	be 20 b7 04 08       	mov    $0x804b720,%esi
 80492b6:	bb 00 00 00 00       	mov    $0x0,%ebx
 80492bb:	83 c3 01             	add    $0x1,%ebx
 80492be:	89 74 24 18          	mov    %esi,0x18(%esp)
 80492c2:	89 5c 24 14          	mov    %ebx,0x14(%esp)
 80492c6:	8d 45 98             	lea    -0x68(%ebp),%eax
 80492c9:	89 44 24 10          	mov    %eax,0x10(%esp)
 80492cd:	a1 a0 b1 04 08       	mov    0x804b1a0,%eax
 80492d2:	89 44 24 0c          	mov    %eax,0xc(%esp)
 80492d6:	c7 44 24 08 c0 b1 04 	movl   $0x804b1c0,0x8(%esp)
 80492dd:	08 
 80492de:	c7 44 24 04 25 9f 04 	movl   $0x8049f25,0x4(%esp)
 80492e5:	08 
 80492e6:	89 3c 24             	mov    %edi,(%esp)
 80492e9:	e8 da f6 ff ff       	call   80489c8 <fprintf@plt>
 80492ee:	83 c6 50             	add    $0x50,%esi
 80492f1:	39 1d 0c b7 04 08    	cmp    %ebx,0x804b70c
 80492f7:	7f c2                	jg     80492bb <send_msg_2+0x142>
 80492f9:	89 3c 24             	mov    %edi,(%esp)
 80492fc:	e8 87 f5 ff ff       	call   8048888 <rewind@plt>
 8049301:	c7 44 24 10 41 9f 04 	movl   $0x8049f41,0x10(%esp)
 8049308:	08 
 8049309:	c7 44 24 0c 4b 9f 04 	movl   $0x8049f4b,0xc(%esp)
 8049310:	08 
 8049311:	c7 44 24 08 53 9f 04 	movl   $0x8049f53,0x8(%esp)
 8049318:	08 
 8049319:	c7 44 24 04 6a 9f 04 	movl   $0x8049f6a,0x4(%esp)
 8049320:	08 
 8049321:	c7 04 24 60 bd 04 08 	movl   $0x804bd60,(%esp)
 8049328:	e8 1b f5 ff ff       	call   8048848 <sprintf@plt>
 804932d:	c7 04 24 60 bd 04 08 	movl   $0x804bd60,(%esp)
 8049334:	e8 6f f5 ff ff       	call   80488a8 <system@plt>
 8049339:	85 c0                	test   %eax,%eax
 804933b:	74 18                	je     8049355 <send_msg_2+0x1dc>
 804933d:	c7 04 24 73 9f 04 08 	movl   $0x8049f73,(%esp)
 8049344:	e8 cf f6 ff ff       	call   8048a18 <puts@plt>
 8049349:	c7 04 24 08 00 00 00 	movl   $0x8,(%esp)
 8049350:	e8 f3 f6 ff ff       	call   8048a48 <exit@plt>
 8049355:	89 3c 24             	mov    %edi,(%esp)
 8049358:	e8 eb f5 ff ff       	call   8048948 <fclose@plt>
 804935d:	85 c0                	test   %eax,%eax
 804935f:	74 18                	je     8049379 <send_msg_2+0x200>
 8049361:	c7 04 24 8d 9f 04 08 	movl   $0x8049f8d,(%esp)
 8049368:	e8 ab f6 ff ff       	call   8048a18 <puts@plt>
 804936d:	c7 04 24 08 00 00 00 	movl   $0x8,(%esp)
 8049374:	e8 cf f6 ff ff       	call   8048a48 <exit@plt>
 8049379:	8b 45 94             	mov    -0x6c(%ebp),%eax
 804937c:	89 04 24             	mov    %eax,(%esp)
 804937f:	e8 e4 f5 ff ff       	call   8048968 <dup@plt>
 8049384:	85 c0                	test   %eax,%eax
 8049386:	74 18                	je     80493a0 <send_msg_2+0x227>
 8049388:	c7 04 24 a6 9f 04 08 	movl   $0x8049fa6,(%esp)
 804938f:	e8 84 f6 ff ff       	call   8048a18 <puts@plt>
 8049394:	c7 04 24 08 00 00 00 	movl   $0x8,(%esp)
 804939b:	e8 a8 f6 ff ff       	call   8048a48 <exit@plt>
 80493a0:	8b 45 94             	mov    -0x6c(%ebp),%eax
 80493a3:	89 04 24             	mov    %eax,(%esp)
 80493a6:	e8 fd f5 ff ff       	call   80489a8 <close@plt>
 80493ab:	85 c0                	test   %eax,%eax
 80493ad:	74 18                	je     80493c7 <send_msg_2+0x24e>
 80493af:	c7 04 24 c1 9f 04 08 	movl   $0x8049fc1,(%esp)
 80493b6:	e8 5d f6 ff ff       	call   8048a18 <puts@plt>
 80493bb:	c7 04 24 08 00 00 00 	movl   $0x8,(%esp)
 80493c2:	e8 81 f6 ff ff       	call   8048a48 <exit@plt>
 80493c7:	81 c4 8c 00 00 00    	add    $0x8c,%esp
 80493cd:	5b                   	pop    %ebx
 80493ce:	5e                   	pop    %esi
 80493cf:	5f                   	pop    %edi
 80493d0:	5d                   	pop    %ebp
 80493d1:	c3                   	ret    

080493d2 <writen>:
 80493d2:	55                   	push   %ebp
 80493d3:	89 e5                	mov    %esp,%ebp
 80493d5:	57                   	push   %edi
 80493d6:	56                   	push   %esi
 80493d7:	53                   	push   %ebx
 80493d8:	83 ec 1c             	sub    $0x1c,%esp
 80493db:	83 7d 10 00          	cmpl   $0x0,0x10(%ebp)
 80493df:	74 49                	je     804942a <writen+0x58>
 80493e1:	8b 7d 0c             	mov    0xc(%ebp),%edi
 80493e4:	8b 75 10             	mov    0x10(%ebp),%esi
 80493e7:	89 74 24 08          	mov    %esi,0x8(%esp)
 80493eb:	89 7c 24 04          	mov    %edi,0x4(%esp)
 80493ef:	8b 45 08             	mov    0x8(%ebp),%eax
 80493f2:	89 04 24             	mov    %eax,(%esp)
 80493f5:	e8 be f4 ff ff       	call   80488b8 <write@plt>
 80493fa:	89 c3                	mov    %eax,%ebx
 80493fc:	85 c0                	test   %eax,%eax
 80493fe:	7f 17                	jg     8049417 <writen+0x45>
 8049400:	e8 33 f4 ff ff       	call   8048838 <__errno_location@plt>
 8049405:	83 38 04             	cmpl   $0x4,(%eax)
 8049408:	74 08                	je     8049412 <writen+0x40>
 804940a:	b8 ff ff ff ff       	mov    $0xffffffff,%eax
 804940f:	90                   	nop
 8049410:	eb 1b                	jmp    804942d <writen+0x5b>
 8049412:	bb 00 00 00 00       	mov    $0x0,%ebx
 8049417:	29 de                	sub    %ebx,%esi
 8049419:	8d b4 26 00 00 00 00 	lea    0x0(%esi,%eiz,1),%esi
 8049420:	74 08                	je     804942a <writen+0x58>
 8049422:	01 df                	add    %ebx,%edi
 8049424:	8d 74 26 00          	lea    0x0(%esi,%eiz,1),%esi
 8049428:	eb bd                	jmp    80493e7 <writen+0x15>
 804942a:	8b 45 10             	mov    0x10(%ebp),%eax
 804942d:	83 c4 1c             	add    $0x1c,%esp
 8049430:	5b                   	pop    %ebx
 8049431:	5e                   	pop    %esi
 8049432:	5f                   	pop    %edi
 8049433:	5d                   	pop    %ebp
 8049434:	c3                   	ret    

08049435 <send_msg>:
 8049435:	55                   	push   %ebp
 8049436:	89 e5                	mov    %esp,%ebp
 8049438:	57                   	push   %edi
 8049439:	56                   	push   %esi
 804943a:	53                   	push   %ebx
 804943b:	81 ec 9c 24 00 00    	sub    $0x249c,%esp
 8049441:	c7 44 24 08 00 00 00 	movl   $0x0,0x8(%esp)
 8049448:	00 
 8049449:	c7 44 24 04 01 00 00 	movl   $0x1,0x4(%esp)
 8049450:	00 
 8049451:	c7 04 24 02 00 00 00 	movl   $0x2,(%esp)
 8049458:	e8 cb f4 ff ff       	call   8048928 <socket@plt>
 804945d:	89 85 84 db ff ff    	mov    %eax,-0x247c(%ebp)
 8049463:	85 c0                	test   %eax,%eax
 8049465:	79 38                	jns    804949f <send_msg+0x6a>
 8049467:	c7 44 24 08 d8 9f 04 	movl   $0x8049fd8,0x8(%esp)
 804946e:	08 
 804946f:	c7 44 24 04 a1 9c 04 	movl   $0x8049ca1,0x4(%esp)
 8049476:	08 
 8049477:	8b 1d 00 b7 04 08    	mov    0x804b700,%ebx
 804947d:	89 1c 24             	mov    %ebx,(%esp)
 8049480:	e8 43 f5 ff ff       	call   80489c8 <fprintf@plt>
 8049485:	8b 85 84 db ff ff    	mov    -0x247c(%ebp),%eax
 804948b:	89 04 24             	mov    %eax,(%esp)
 804948e:	e8 15 f5 ff ff       	call   80489a8 <close@plt>
 8049493:	c7 04 24 01 00 00 00 	movl   $0x1,(%esp)
 804949a:	e8 a9 f5 ff ff       	call   8048a48 <exit@plt>
 804949f:	8d 45 d8             	lea    -0x28(%ebp),%eax
 80494a2:	c7 40 04 00 00 00 00 	movl   $0x0,0x4(%eax)
 80494a9:	c7 40 08 00 00 00 00 	movl   $0x0,0x8(%eax)
 80494b0:	c7 40 0c 00 00 00 00 	movl   $0x0,0xc(%eax)
 80494b7:	66 c7 45 d8 02 00    	movw   $0x2,-0x28(%ebp)
 80494bd:	66 c7 45 da c8 7a    	movw   $0x7ac8,-0x26(%ebp)
 80494c3:	8d 45 dc             	lea    -0x24(%ebp),%eax
 80494c6:	89 44 24 08          	mov    %eax,0x8(%esp)
 80494ca:	c7 44 24 04 e5 9f 04 	movl   $0x8049fe5,0x4(%esp)
 80494d1:	08 
 80494d2:	c7 04 24 02 00 00 00 	movl   $0x2,(%esp)
 80494d9:	e8 2a f4 ff ff       	call   8048908 <inet_pton@plt>
 80494de:	85 c0                	test   %eax,%eax
 80494e0:	79 41                	jns    8049523 <send_msg+0xee>
 80494e2:	c7 44 24 08 ae 9e 04 	movl   $0x8049eae,0x8(%esp)
 80494e9:	08 
 80494ea:	c7 44 24 04 a1 9c 04 	movl   $0x8049ca1,0x4(%esp)
 80494f1:	08 
 80494f2:	8b 1d 00 b7 04 08    	mov    0x804b700,%ebx
 80494f8:	89 1c 24             	mov    %ebx,(%esp)
 80494fb:	e8 c8 f4 ff ff       	call   80489c8 <fprintf@plt>
 8049500:	83 bd 84 db ff ff 00 	cmpl   $0x0,-0x247c(%ebp)
 8049507:	74 0e                	je     8049517 <send_msg+0xe2>
 8049509:	8b 8d 84 db ff ff    	mov    -0x247c(%ebp),%ecx
 804950f:	89 0c 24             	mov    %ecx,(%esp)
 8049512:	e8 91 f4 ff ff       	call   80489a8 <close@plt>
 8049517:	c7 04 24 01 00 00 00 	movl   $0x1,(%esp)
 804951e:	e8 25 f5 ff ff       	call   8048a48 <exit@plt>
 8049523:	c7 44 24 08 10 00 00 	movl   $0x10,0x8(%esp)
 804952a:	00 
 804952b:	8d 45 d8             	lea    -0x28(%ebp),%eax
 804952e:	89 44 24 04          	mov    %eax,0x4(%esp)
 8049532:	8b 85 84 db ff ff    	mov    -0x247c(%ebp),%eax
 8049538:	89 04 24             	mov    %eax,(%esp)
 804953b:	e8 18 f3 ff ff       	call   8048858 <connect@plt>
 8049540:	85 c0                	test   %eax,%eax
 8049542:	79 41                	jns    8049585 <send_msg+0x150>
 8049544:	c7 44 24 08 f4 9f 04 	movl   $0x8049ff4,0x8(%esp)
 804954b:	08 
 804954c:	c7 44 24 04 a1 9c 04 	movl   $0x8049ca1,0x4(%esp)
 8049553:	08 
 8049554:	8b 1d 00 b7 04 08    	mov    0x804b700,%ebx
 804955a:	89 1c 24             	mov    %ebx,(%esp)
 804955d:	e8 66 f4 ff ff       	call   80489c8 <fprintf@plt>
 8049562:	83 bd 84 db ff ff 00 	cmpl   $0x0,-0x247c(%ebp)
 8049569:	74 0e                	je     8049579 <send_msg+0x144>
 804956b:	8b 8d 84 db ff ff    	mov    -0x247c(%ebp),%ecx
 8049571:	89 0c 24             	mov    %ecx,(%esp)
 8049574:	e8 2f f4 ff ff       	call   80489a8 <close@plt>
 8049579:	c7 04 24 01 00 00 00 	movl   $0x1,(%esp)
 8049580:	e8 c3 f4 ff ff       	call   8048a48 <exit@plt>
 8049585:	8d bd d8 db ff ff    	lea    -0x2428(%ebp),%edi
 804958b:	c7 07 53 75 62 6a    	movl   $0x6a627553,(%edi)
 8049591:	c7 47 04 65 63 74 3a 	movl   $0x3a746365,0x4(%edi)
 8049598:	c7 47 08 20 42 6f 6d 	movl   $0x6d6f4220,0x8(%edi)
 804959f:	c7 47 0c 62 20 6e 6f 	movl   $0x6f6e2062,0xc(%edi)
 80495a6:	c7 47 10 74 69 66 69 	movl   $0x69666974,0x10(%edi)
 80495ad:	c7 47 14 63 61 74 69 	movl   $0x69746163,0x14(%edi)
 80495b4:	c7 47 18 6f 6e 0a 00 	movl   $0xa6e6f,0x18(%edi)
 80495bb:	89 7c 24 04          	mov    %edi,0x4(%esp)
 80495bf:	8d 9d d8 df ff ff    	lea    -0x2028(%ebp),%ebx
 80495c5:	89 1c 24             	mov    %ebx,(%esp)
 80495c8:	e8 3b f4 ff ff       	call   8048a08 <strcat@plt>
 80495cd:	66 c7 07 0a 00       	movw   $0xa,(%edi)
 80495d2:	89 7c 24 04          	mov    %edi,0x4(%esp)
 80495d6:	89 1c 24             	mov    %ebx,(%esp)
 80495d9:	e8 2a f4 ff ff       	call   8048a08 <strcat@plt>
 80495de:	c7 04 24 00 00 00 00 	movl   $0x0,(%esp)
 80495e5:	e8 ee f3 ff ff       	call   80489d8 <cuserid@plt>
 80495ea:	85 c0                	test   %eax,%eax
 80495ec:	75 18                	jne    8049606 <send_msg+0x1d1>
 80495ee:	8d 85 88 db ff ff    	lea    -0x2478(%ebp),%eax
 80495f4:	c7 00 6e 6f 62 6f    	movl   $0x6f626f6e,(%eax)
 80495fa:	66 c7 40 04 64 79    	movw   $0x7964,0x4(%eax)
 8049600:	c6 40 06 00          	movb   $0x0,0x6(%eax)
 8049604:	eb 12                	jmp    8049618 <send_msg+0x1e3>
 8049606:	89 44 24 04          	mov    %eax,0x4(%esp)
 804960a:	8d 85 88 db ff ff    	lea    -0x2478(%ebp),%eax
 8049610:	89 04 24             	mov    %eax,(%esp)
 8049613:	e8 70 f3 ff ff       	call   8048988 <strcpy@plt>
 8049618:	8b 15 0c b7 04 08    	mov    0x804b70c,%edx
 804961e:	b8 01 9f 04 08       	mov    $0x8049f01,%eax
 8049623:	83 7d 08 00          	cmpl   $0x0,0x8(%ebp)
 8049627:	75 05                	jne    804962e <send_msg+0x1f9>
 8049629:	b8 f8 9e 04 08       	mov    $0x8049ef8,%eax
 804962e:	89 54 24 18          	mov    %edx,0x18(%esp)
 8049632:	89 44 24 14          	mov    %eax,0x14(%esp)
 8049636:	8d 85 88 db ff ff    	lea    -0x2478(%ebp),%eax
 804963c:	89 44 24 10          	mov    %eax,0x10(%esp)
 8049640:	8b 1d a0 b1 04 08    	mov    0x804b1a0,%ebx
 8049646:	89 5c 24 0c          	mov    %ebx,0xc(%esp)
 804964a:	c7 44 24 08 c0 b1 04 	movl   $0x804b1c0,0x8(%esp)
 8049651:	08 
 8049652:	c7 44 24 04 09 9f 04 	movl   $0x8049f09,0x4(%esp)
 8049659:	08 
 804965a:	8d 85 d8 db ff ff    	lea    -0x2428(%ebp),%eax
 8049660:	89 04 24             	mov    %eax,(%esp)
 8049663:	e8 e0 f1 ff ff       	call   8048848 <sprintf@plt>
 8049668:	89 7c 24 04          	mov    %edi,0x4(%esp)
 804966c:	8d 85 d8 df ff ff    	lea    -0x2028(%ebp),%eax
 8049672:	89 04 24             	mov    %eax,(%esp)
 8049675:	e8 8e f3 ff ff       	call   8048a08 <strcat@plt>
 804967a:	83 3d 0c b7 04 08 00 	cmpl   $0x0,0x804b70c
 8049681:	7e 64                	jle    80496e7 <send_msg+0x2b2>
 8049683:	be 20 b7 04 08       	mov    $0x804b720,%esi
 8049688:	bb 00 00 00 00       	mov    $0x0,%ebx
 804968d:	83 c3 01             	add    $0x1,%ebx
 8049690:	89 74 24 18          	mov    %esi,0x18(%esp)
 8049694:	89 5c 24 14          	mov    %ebx,0x14(%esp)
 8049698:	8d 85 88 db ff ff    	lea    -0x2478(%ebp),%eax
 804969e:	89 44 24 10          	mov    %eax,0x10(%esp)
 80496a2:	8b 0d a0 b1 04 08    	mov    0x804b1a0,%ecx
 80496a8:	89 4c 24 0c          	mov    %ecx,0xc(%esp)
 80496ac:	c7 44 24 08 c0 b1 04 	movl   $0x804b1c0,0x8(%esp)
 80496b3:	08 
 80496b4:	c7 44 24 04 25 9f 04 	movl   $0x8049f25,0x4(%esp)
 80496bb:	08 
 80496bc:	8d 85 d8 db ff ff    	lea    -0x2428(%ebp),%eax
 80496c2:	89 04 24             	mov    %eax,(%esp)
 80496c5:	e8 7e f1 ff ff       	call   8048848 <sprintf@plt>
 80496ca:	89 7c 24 04          	mov    %edi,0x4(%esp)
 80496ce:	8d 8d d8 df ff ff    	lea    -0x2028(%ebp),%ecx
 80496d4:	89 0c 24             	mov    %ecx,(%esp)
 80496d7:	e8 2c f3 ff ff       	call   8048a08 <strcat@plt>
 80496dc:	83 c6 50             	add    $0x50,%esi
 80496df:	39 1d 0c b7 04 08    	cmp    %ebx,0x804b70c
 80496e5:	7f a6                	jg     804968d <send_msg+0x258>
 80496e7:	8d 9d d8 df ff ff    	lea    -0x2028(%ebp),%ebx
 80496ed:	be ff ff ff ff       	mov    $0xffffffff,%esi
 80496f2:	89 df                	mov    %ebx,%edi
 80496f4:	89 f1                	mov    %esi,%ecx
 80496f6:	b8 00 00 00 00       	mov    $0x0,%eax
 80496fb:	f2 ae                	repnz scas %es:(%edi),%al
 80496fd:	f7 d1                	not    %ecx
 80496ff:	83 e9 01             	sub    $0x1,%ecx
 8049702:	89 4c 24 08          	mov    %ecx,0x8(%esp)
 8049706:	89 5c 24 04          	mov    %ebx,0x4(%esp)
 804970a:	8b 8d 84 db ff ff    	mov    -0x247c(%ebp),%ecx
 8049710:	89 0c 24             	mov    %ecx,(%esp)
 8049713:	e8 ba fc ff ff       	call   80493d2 <writen>
 8049718:	89 c2                	mov    %eax,%edx
 804971a:	89 df                	mov    %ebx,%edi
 804971c:	89 f1                	mov    %esi,%ecx
 804971e:	b8 00 00 00 00       	mov    $0x0,%eax
 8049723:	f2 ae                	repnz scas %es:(%edi),%al
 8049725:	89 ce                	mov    %ecx,%esi
 8049727:	f7 d6                	not    %esi
 8049729:	83 ee 01             	sub    $0x1,%esi
 804972c:	39 f2                	cmp    %esi,%edx
 804972e:	73 41                	jae    8049771 <send_msg+0x33c>
 8049730:	c7 44 24 08 02 a0 04 	movl   $0x804a002,0x8(%esp)
 8049737:	08 
 8049738:	c7 44 24 04 a1 9c 04 	movl   $0x8049ca1,0x4(%esp)
 804973f:	08 
 8049740:	8b 1d 00 b7 04 08    	mov    0x804b700,%ebx
 8049746:	89 1c 24             	mov    %ebx,(%esp)
 8049749:	e8 7a f2 ff ff       	call   80489c8 <fprintf@plt>
 804974e:	83 bd 84 db ff ff 00 	cmpl   $0x0,-0x247c(%ebp)
 8049755:	74 0e                	je     8049765 <send_msg+0x330>
 8049757:	8b 85 84 db ff ff    	mov    -0x247c(%ebp),%eax
 804975d:	89 04 24             	mov    %eax,(%esp)
 8049760:	e8 43 f2 ff ff       	call   80489a8 <close@plt>
 8049765:	c7 04 24 01 00 00 00 	movl   $0x1,(%esp)
 804976c:	e8 d7 f2 ff ff       	call   8048a48 <exit@plt>
 8049771:	8b 8d 84 db ff ff    	mov    -0x247c(%ebp),%ecx
 8049777:	89 0c 24             	mov    %ecx,(%esp)
 804977a:	e8 29 f2 ff ff       	call   80489a8 <close@plt>
 804977f:	81 c4 9c 24 00 00    	add    $0x249c,%esp
 8049785:	5b                   	pop    %ebx
 8049786:	5e                   	pop    %esi
 8049787:	5f                   	pop    %edi
 8049788:	5d                   	pop    %ebp
 8049789:	c3                   	ret    

0804978a <phase_defused>:
 804978a:	55                   	push   %ebp
 804978b:	89 e5                	mov    %esp,%ebp
 804978d:	53                   	push   %ebx
 804978e:	83 ec 74             	sub    $0x74,%esp
 8049791:	c7 04 24 01 00 00 00 	movl   $0x1,(%esp)
 8049798:	e8 98 fc ff ff       	call   8049435 <send_msg>
 804979d:	83 3d 0c b7 04 08 06 	cmpl   $0x6,0x804b70c
 80497a4:	75 73                	jne    8049819 <phase_defused+0x8f>
 80497a6:	8d 45 a8             	lea    -0x58(%ebp),%eax
 80497a9:	89 44 24 0c          	mov    %eax,0xc(%esp)
 80497ad:	8d 45 a4             	lea    -0x5c(%ebp),%eax
 80497b0:	89 44 24 08          	mov    %eax,0x8(%esp)
 80497b4:	c7 44 24 04 15 a0 04 	movl   $0x804a015,0x4(%esp)
 80497bb:	08 
 80497bc:	c7 04 24 10 b8 04 08 	movl   $0x804b810,(%esp)
 80497c3:	e8 60 f2 ff ff       	call   8048a28 <sscanf@plt>
 80497c8:	83 f8 02             	cmp    $0x2,%eax
 80497cb:	75 34                	jne    8049801 <phase_defused+0x77>
 80497cd:	c7 44 24 04 1b a0 04 	movl   $0x804a01b,0x4(%esp)
 80497d4:	08 
 80497d5:	8d 45 a8             	lea    -0x58(%ebp),%eax
 80497d8:	89 04 24             	mov    %eax,(%esp)
 80497db:	e8 2f f9 ff ff       	call   804910f <strings_not_equal>
 80497e0:	85 c0                	test   %eax,%eax
 80497e2:	75 1d                	jne    8049801 <phase_defused+0x77>
 80497e4:	c7 04 24 ec a0 04 08 	movl   $0x804a0ec,(%esp)
 80497eb:	e8 28 f2 ff ff       	call   8048a18 <puts@plt>
 80497f0:	c7 04 24 14 a1 04 08 	movl   $0x804a114,(%esp)
 80497f7:	e8 1c f2 ff ff       	call   8048a18 <puts@plt>
 80497fc:	e8 55 f5 ff ff       	call   8048d56 <secret_phase>
 8049801:	c7 04 24 4c a1 04 08 	movl   $0x804a14c,(%esp)
 8049808:	e8 0b f2 ff ff       	call   8048a18 <puts@plt>
 804980d:	c7 04 24 78 a1 04 08 	movl   $0x804a178,(%esp)
 8049814:	e8 ff f1 ff ff       	call   8048a18 <puts@plt>
 8049819:	83 c4 74             	add    $0x74,%esp
 804981c:	5b                   	pop    %ebx
 804981d:	5d                   	pop    %ebp
 804981e:	c3                   	ret    

0804981f <explode_bomb>:
 804981f:	55                   	push   %ebp
 8049820:	89 e5                	mov    %esp,%ebp
 8049822:	83 ec 18             	sub    $0x18,%esp
 8049825:	c7 04 24 28 a0 04 08 	movl   $0x804a028,(%esp)
 804982c:	e8 e7 f1 ff ff       	call   8048a18 <puts@plt>
 8049831:	c7 04 24 31 a0 04 08 	movl   $0x804a031,(%esp)
 8049838:	e8 db f1 ff ff       	call   8048a18 <puts@plt>
 804983d:	c7 04 24 00 00 00 00 	movl   $0x0,(%esp)
 8049844:	e8 ec fb ff ff       	call   8049435 <send_msg>
 8049849:	c7 04 24 bc a1 04 08 	movl   $0x804a1bc,(%esp)
 8049850:	e8 c3 f1 ff ff       	call   8048a18 <puts@plt>
 8049855:	c7 04 24 08 00 00 00 	movl   $0x8,(%esp)
 804985c:	e8 e7 f1 ff ff       	call   8048a48 <exit@plt>

08049861 <read_six_numbers>:
 8049861:	55                   	push   %ebp
 8049862:	89 e5                	mov    %esp,%ebp
 8049864:	53                   	push   %ebx
 8049865:	83 ec 24             	sub    $0x24,%esp
 8049868:	8b 45 0c             	mov    0xc(%ebp),%eax
 804986b:	8d 50 14             	lea    0x14(%eax),%edx
 804986e:	89 54 24 1c          	mov    %edx,0x1c(%esp)
 8049872:	8d 50 10             	lea    0x10(%eax),%edx
 8049875:	89 54 24 18          	mov    %edx,0x18(%esp)
 8049879:	8d 50 0c             	lea    0xc(%eax),%edx
 804987c:	89 54 24 14          	mov    %edx,0x14(%esp)
 8049880:	8d 50 08             	lea    0x8(%eax),%edx
 8049883:	89 54 24 10          	mov    %edx,0x10(%esp)
 8049887:	8d 50 04             	lea    0x4(%eax),%edx
 804988a:	89 54 24 0c          	mov    %edx,0xc(%esp)
 804988e:	89 44 24 08          	mov    %eax,0x8(%esp)
 8049892:	c7 44 24 04 48 a0 04 	movl   $0x804a048,0x4(%esp)
 8049899:	08 
 804989a:	8b 45 08             	mov    0x8(%ebp),%eax
 804989d:	89 04 24             	mov    %eax,(%esp)
 80498a0:	e8 83 f1 ff ff       	call   8048a28 <sscanf@plt>
 80498a5:	83 f8 05             	cmp    $0x5,%eax
 80498a8:	7f 05                	jg     80498af <read_six_numbers+0x4e>
 80498aa:	e8 70 ff ff ff       	call   804981f <explode_bomb>
 80498af:	83 c4 24             	add    $0x24,%esp
 80498b2:	5b                   	pop    %ebx
 80498b3:	5d                   	pop    %ebp
 80498b4:	8d 74 26 00          	lea    0x0(%esi,%eiz,1),%esi
 80498b8:	c3                   	ret    

080498b9 <blank_line>:
 80498b9:	55                   	push   %ebp
 80498ba:	89 e5                	mov    %esp,%ebp
 80498bc:	56                   	push   %esi
 80498bd:	53                   	push   %ebx
 80498be:	8b 75 08             	mov    0x8(%ebp),%esi
 80498c1:	eb 1b                	jmp    80498de <blank_line+0x25>
 80498c3:	e8 70 f0 ff ff       	call   8048938 <__ctype_b_loc@plt>
 80498c8:	0f be db             	movsbl %bl,%ebx
 80498cb:	8b 00                	mov    (%eax),%eax
 80498cd:	f6 44 58 01 20       	testb  $0x20,0x1(%eax,%ebx,2)
 80498d2:	75 07                	jne    80498db <blank_line+0x22>
 80498d4:	b8 00 00 00 00       	mov    $0x0,%eax
 80498d9:	eb 0f                	jmp    80498ea <blank_line+0x31>
 80498db:	83 c6 01             	add    $0x1,%esi
 80498de:	0f b6 1e             	movzbl (%esi),%ebx
 80498e1:	84 db                	test   %bl,%bl
 80498e3:	75 de                	jne    80498c3 <blank_line+0xa>
 80498e5:	b8 01 00 00 00       	mov    $0x1,%eax
 80498ea:	5b                   	pop    %ebx
 80498eb:	5e                   	pop    %esi
 80498ec:	5d                   	pop    %ebp
 80498ed:	c3                   	ret    

080498ee <skip>:
 80498ee:	55                   	push   %ebp
 80498ef:	89 e5                	mov    %esp,%ebp
 80498f1:	53                   	push   %ebx
 80498f2:	83 ec 14             	sub    $0x14,%esp
 80498f5:	8b 1d 10 b7 04 08    	mov    0x804b710,%ebx
 80498fb:	89 5c 24 08          	mov    %ebx,0x8(%esp)
 80498ff:	c7 44 24 04 50 00 00 	movl   $0x50,0x4(%esp)
 8049906:	00 
 8049907:	8b 1d 0c b7 04 08    	mov    0x804b70c,%ebx
 804990d:	8d 04 9b             	lea    (%ebx,%ebx,4),%eax
 8049910:	c1 e0 04             	shl    $0x4,%eax
 8049913:	05 20 b7 04 08       	add    $0x804b720,%eax
 8049918:	89 04 24             	mov    %eax,(%esp)
 804991b:	e8 a8 ef ff ff       	call   80488c8 <fgets@plt>
 8049920:	89 c3                	mov    %eax,%ebx
 8049922:	85 c0                	test   %eax,%eax
 8049924:	74 0c                	je     8049932 <skip+0x44>
 8049926:	89 04 24             	mov    %eax,(%esp)
 8049929:	e8 8b ff ff ff       	call   80498b9 <blank_line>
 804992e:	85 c0                	test   %eax,%eax
 8049930:	75 c3                	jne    80498f5 <skip+0x7>
 8049932:	89 d8                	mov    %ebx,%eax
 8049934:	83 c4 14             	add    $0x14,%esp
 8049937:	5b                   	pop    %ebx
 8049938:	5d                   	pop    %ebp
 8049939:	c3                   	ret    

0804993a <read_line>:
 804993a:	55                   	push   %ebp
 804993b:	89 e5                	mov    %esp,%ebp
 804993d:	57                   	push   %edi
 804993e:	53                   	push   %ebx
 804993f:	83 ec 10             	sub    $0x10,%esp
 8049942:	e8 a7 ff ff ff       	call   80498ee <skip>
 8049947:	85 c0                	test   %eax,%eax
 8049949:	75 63                	jne    80499ae <read_line+0x74>
 804994b:	8b 1d 10 b7 04 08    	mov    0x804b710,%ebx
 8049951:	3b 1d e0 b6 04 08    	cmp    0x804b6e0,%ebx
 8049957:	75 13                	jne    804996c <read_line+0x32>
 8049959:	c7 04 24 5a a0 04 08 	movl   $0x804a05a,(%esp)
 8049960:	e8 b3 f0 ff ff       	call   8048a18 <puts@plt>
 8049965:	e8 b5 fe ff ff       	call   804981f <explode_bomb>
 804996a:	eb 42                	jmp    80499ae <read_line+0x74>
 804996c:	c7 04 24 78 a0 04 08 	movl   $0x804a078,(%esp)
 8049973:	e8 20 ef ff ff       	call   8048898 <getenv@plt>
 8049978:	85 c0                	test   %eax,%eax
 804997a:	74 0c                	je     8049988 <read_line+0x4e>
 804997c:	c7 04 24 00 00 00 00 	movl   $0x0,(%esp)
 8049983:	e8 c0 f0 ff ff       	call   8048a48 <exit@plt>
 8049988:	8b 1d e0 b6 04 08    	mov    0x804b6e0,%ebx
 804998e:	89 1d 10 b7 04 08    	mov    %ebx,0x804b710
 8049994:	e8 55 ff ff ff       	call   80498ee <skip>
 8049999:	85 c0                	test   %eax,%eax
 804999b:	75 11                	jne    80499ae <read_line+0x74>
 804999d:	c7 04 24 5a a0 04 08 	movl   $0x804a05a,(%esp)
 80499a4:	e8 6f f0 ff ff       	call   8048a18 <puts@plt>
 80499a9:	e8 71 fe ff ff       	call   804981f <explode_bomb>
 80499ae:	8b 1d 0c b7 04 08    	mov    0x804b70c,%ebx
 80499b4:	8d 04 9b             	lea    (%ebx,%ebx,4),%eax
 80499b7:	c1 e0 04             	shl    $0x4,%eax
 80499ba:	8d b8 20 b7 04 08    	lea    0x804b720(%eax),%edi
 80499c0:	b8 00 00 00 00       	mov    $0x0,%eax
 80499c5:	b9 ff ff ff ff       	mov    $0xffffffff,%ecx
 80499ca:	f2 ae                	repnz scas %es:(%edi),%al
 80499cc:	f7 d1                	not    %ecx
 80499ce:	8d 59 ff             	lea    -0x1(%ecx),%ebx
 80499d1:	83 fb 4f             	cmp    $0x4f,%ebx
 80499d4:	75 11                	jne    80499e7 <read_line+0xad>
 80499d6:	c7 04 24 83 a0 04 08 	movl   $0x804a083,(%esp)
 80499dd:	e8 36 f0 ff ff       	call   8048a18 <puts@plt>
 80499e2:	e8 38 fe ff ff       	call   804981f <explode_bomb>
 80499e7:	8b 15 0c b7 04 08    	mov    0x804b70c,%edx
 80499ed:	8d 04 92             	lea    (%edx,%edx,4),%eax
 80499f0:	c1 e0 04             	shl    $0x4,%eax
 80499f3:	c6 84 03 1f b7 04 08 	movb   $0x0,0x804b71f(%ebx,%eax,1)
 80499fa:	00 
 80499fb:	83 c2 01             	add    $0x1,%edx
 80499fe:	89 15 0c b7 04 08    	mov    %edx,0x804b70c
 8049a04:	05 20 b7 04 08       	add    $0x804b720,%eax
 8049a09:	83 c4 10             	add    $0x10,%esp
 8049a0c:	5b                   	pop    %ebx
 8049a0d:	5f                   	pop    %edi
 8049a0e:	5d                   	pop    %ebp
 8049a0f:	c3                   	ret    

08049a10 <invalid_phase>:
 8049a10:	55                   	push   %ebp
 8049a11:	89 e5                	mov    %esp,%ebp
 8049a13:	83 ec 18             	sub    $0x18,%esp
 8049a16:	8b 45 08             	mov    0x8(%ebp),%eax
 8049a19:	89 44 24 04          	mov    %eax,0x4(%esp)
 8049a1d:	c7 04 24 9e a0 04 08 	movl   $0x804a09e,(%esp)
 8049a24:	e8 6f ef ff ff       	call   8048998 <printf@plt>
 8049a29:	c7 04 24 08 00 00 00 	movl   $0x8,(%esp)
 8049a30:	e8 13 f0 ff ff       	call   8048a48 <exit@plt>

08049a35 <sig_handler>:
 8049a35:	55                   	push   %ebp
 8049a36:	89 e5                	mov    %esp,%ebp
 8049a38:	53                   	push   %ebx
 8049a39:	83 ec 14             	sub    $0x14,%esp
 8049a3c:	c7 04 24 e0 a1 04 08 	movl   $0x804a1e0,(%esp)
 8049a43:	e8 d0 ef ff ff       	call   8048a18 <puts@plt>
 8049a48:	c7 04 24 03 00 00 00 	movl   $0x3,(%esp)
 8049a4f:	e8 a4 ef ff ff       	call   80489f8 <sleep@plt>
 8049a54:	c7 04 24 af a0 04 08 	movl   $0x804a0af,(%esp)
 8049a5b:	e8 38 ef ff ff       	call   8048998 <printf@plt>
 8049a60:	8b 1d 00 b7 04 08    	mov    0x804b700,%ebx
 8049a66:	89 1c 24             	mov    %ebx,(%esp)
 8049a69:	e8 aa ee ff ff       	call   8048918 <fflush@plt>
 8049a6e:	c7 04 24 01 00 00 00 	movl   $0x1,(%esp)
 8049a75:	e8 7e ef ff ff       	call   80489f8 <sleep@plt>
 8049a7a:	c7 04 24 b7 a0 04 08 	movl   $0x804a0b7,(%esp)
 8049a81:	e8 92 ef ff ff       	call   8048a18 <puts@plt>
 8049a86:	c7 04 24 10 00 00 00 	movl   $0x10,(%esp)
 8049a8d:	e8 b6 ef ff ff       	call   8048a48 <exit@plt>

08049a92 <open_clientfd>:
 8049a92:	55                   	push   %ebp
 8049a93:	89 e5                	mov    %esp,%ebp
 8049a95:	83 ec 38             	sub    $0x38,%esp
 8049a98:	89 5d f4             	mov    %ebx,-0xc(%ebp)
 8049a9b:	89 75 f8             	mov    %esi,-0x8(%ebp)
 8049a9e:	89 7d fc             	mov    %edi,-0x4(%ebp)
 8049aa1:	c7 44 24 08 00 00 00 	movl   $0x0,0x8(%esp)
 8049aa8:	00 
 8049aa9:	c7 44 24 04 01 00 00 	movl   $0x1,0x4(%esp)
 8049ab0:	00 
 8049ab1:	c7 04 24 02 00 00 00 	movl   $0x2,(%esp)
 8049ab8:	e8 6b ee ff ff       	call   8048928 <socket@plt>
 8049abd:	89 c7                	mov    %eax,%edi
 8049abf:	85 c0                	test   %eax,%eax
 8049ac1:	79 18                	jns    8049adb <open_clientfd+0x49>
 8049ac3:	c7 04 24 bf a0 04 08 	movl   $0x804a0bf,(%esp)
 8049aca:	e8 49 ef ff ff       	call   8048a18 <puts@plt>
 8049acf:	c7 04 24 08 00 00 00 	movl   $0x8,(%esp)
 8049ad6:	e8 6d ef ff ff       	call   8048a48 <exit@plt>
 8049adb:	8b 45 08             	mov    0x8(%ebp),%eax
 8049ade:	89 04 24             	mov    %eax,(%esp)
 8049ae1:	e8 52 ef ff ff       	call   8048a38 <gethostbyname@plt>
 8049ae6:	89 c3                	mov    %eax,%ebx
 8049ae8:	85 c0                	test   %eax,%eax
 8049aea:	75 18                	jne    8049b04 <open_clientfd+0x72>
 8049aec:	c7 04 24 cd a0 04 08 	movl   $0x804a0cd,(%esp)
 8049af3:	e8 20 ef ff ff       	call   8048a18 <puts@plt>
 8049af8:	c7 04 24 08 00 00 00 	movl   $0x8,(%esp)
 8049aff:	e8 44 ef ff ff       	call   8048a48 <exit@plt>
 8049b04:	8d 75 d8             	lea    -0x28(%ebp),%esi
 8049b07:	c7 06 00 00 00 00    	movl   $0x0,(%esi)
 8049b0d:	c7 46 04 00 00 00 00 	movl   $0x0,0x4(%esi)
 8049b14:	c7 46 08 00 00 00 00 	movl   $0x0,0x8(%esi)
 8049b1b:	c7 46 0c 00 00 00 00 	movl   $0x0,0xc(%esi)
 8049b22:	66 c7 45 d8 02 00    	movw   $0x2,-0x28(%ebp)
 8049b28:	8b 40 0c             	mov    0xc(%eax),%eax
 8049b2b:	89 44 24 08          	mov    %eax,0x8(%esp)
 8049b2f:	8d 45 dc             	lea    -0x24(%ebp),%eax
 8049b32:	89 44 24 04          	mov    %eax,0x4(%esp)
 8049b36:	8b 43 10             	mov    0x10(%ebx),%eax
 8049b39:	8b 00                	mov    (%eax),%eax
 8049b3b:	89 04 24             	mov    %eax,(%esp)
 8049b3e:	e8 15 ee ff ff       	call   8048958 <bcopy@plt>
 8049b43:	0f b7 5d 0c          	movzwl 0xc(%ebp),%ebx
 8049b47:	66 c1 cb 08          	ror    $0x8,%bx
 8049b4b:	66 89 5d da          	mov    %bx,-0x26(%ebp)
 8049b4f:	c7 44 24 08 10 00 00 	movl   $0x10,0x8(%esp)
 8049b56:	00 
 8049b57:	89 74 24 04          	mov    %esi,0x4(%esp)
 8049b5b:	89 3c 24             	mov    %edi,(%esp)
 8049b5e:	e8 f5 ec ff ff       	call   8048858 <connect@plt>
 8049b63:	85 c0                	test   %eax,%eax
 8049b65:	79 18                	jns    8049b7f <open_clientfd+0xed>
 8049b67:	c7 04 24 db a0 04 08 	movl   $0x804a0db,(%esp)
 8049b6e:	e8 a5 ee ff ff       	call   8048a18 <puts@plt>
 8049b73:	c7 04 24 08 00 00 00 	movl   $0x8,(%esp)
 8049b7a:	e8 c9 ee ff ff       	call   8048a48 <exit@plt>
 8049b7f:	89 f8                	mov    %edi,%eax
 8049b81:	8b 5d f4             	mov    -0xc(%ebp),%ebx
 8049b84:	8b 75 f8             	mov    -0x8(%ebp),%esi
 8049b87:	8b 7d fc             	mov    -0x4(%ebp),%edi
 8049b8a:	89 ec                	mov    %ebp,%esp
 8049b8c:	5d                   	pop    %ebp
 8049b8d:	c3                   	ret    

08049b8e <initialize_bomb>:
 8049b8e:	55                   	push   %ebp
 8049b8f:	89 e5                	mov    %esp,%ebp
 8049b91:	83 ec 18             	sub    $0x18,%esp
 8049b94:	c7 44 24 04 35 9a 04 	movl   $0x8049a35,0x4(%esp)
 8049b9b:	08 
 8049b9c:	c7 04 24 02 00 00 00 	movl   $0x2,(%esp)
 8049ba3:	e8 c0 ec ff ff       	call   8048868 <signal@plt>
 8049ba8:	c7 44 24 04 50 00 00 	movl   $0x50,0x4(%esp)
 8049baf:	00 
 8049bb0:	c7 04 24 e5 9f 04 08 	movl   $0x8049fe5,(%esp)
 8049bb7:	e8 d6 fe ff ff       	call   8049a92 <open_clientfd>
 8049bbc:	89 04 24             	mov    %eax,(%esp)
 8049bbf:	e8 e4 ed ff ff       	call   80489a8 <close@plt>
 8049bc4:	c9                   	leave  
 8049bc5:	c3                   	ret    
 8049bc6:	90                   	nop
 8049bc7:	90                   	nop

08049bc8 <__libc_csu_fini>:
 8049bc8:	55                   	push   %ebp
 8049bc9:	89 e5                	mov    %esp,%ebp
 8049bcb:	5d                   	pop    %ebp
 8049bcc:	c3                   	ret    

08049bcd <__libc_csu_init>:
 8049bcd:	55                   	push   %ebp
 8049bce:	89 e5                	mov    %esp,%ebp
 8049bd0:	57                   	push   %edi
 8049bd1:	56                   	push   %esi
 8049bd2:	53                   	push   %ebx
 8049bd3:	83 ec 0c             	sub    $0xc,%esp
 8049bd6:	e8 4c 00 00 00       	call   8049c27 <__i686.get_pc_thunk.bx>
 8049bdb:	81 c3 05 15 00 00    	add    $0x1505,%ebx
 8049be1:	e8 12 ec ff ff       	call   80487f8 <_init>
 8049be6:	8d 83 20 ff ff ff    	lea    -0xe0(%ebx),%eax
 8049bec:	8d 93 20 ff ff ff    	lea    -0xe0(%ebx),%edx
 8049bf2:	29 d0                	sub    %edx,%eax
 8049bf4:	89 c7                	mov    %eax,%edi
 8049bf6:	c1 ff 02             	sar    $0x2,%edi
 8049bf9:	74 24                	je     8049c1f <__libc_csu_init+0x52>
 8049bfb:	31 f6                	xor    %esi,%esi
 8049bfd:	8b 45 10             	mov    0x10(%ebp),%eax
 8049c00:	89 44 24 08          	mov    %eax,0x8(%esp)
 8049c04:	8b 45 0c             	mov    0xc(%ebp),%eax
 8049c07:	89 44 24 04          	mov    %eax,0x4(%esp)
 8049c0b:	8b 45 08             	mov    0x8(%ebp),%eax
 8049c0e:	89 04 24             	mov    %eax,(%esp)
 8049c11:	ff 94 b3 20 ff ff ff 	call   *-0xe0(%ebx,%esi,4)
 8049c18:	83 c6 01             	add    $0x1,%esi
 8049c1b:	39 fe                	cmp    %edi,%esi
 8049c1d:	72 de                	jb     8049bfd <__libc_csu_init+0x30>
 8049c1f:	83 c4 0c             	add    $0xc,%esp
 8049c22:	5b                   	pop    %ebx
 8049c23:	5e                   	pop    %esi
 8049c24:	5f                   	pop    %edi
 8049c25:	5d                   	pop    %ebp
 8049c26:	c3                   	ret    

08049c27 <__i686.get_pc_thunk.bx>:
 8049c27:	8b 1c 24             	mov    (%esp),%ebx
 8049c2a:	c3                   	ret    
 8049c2b:	90                   	nop
 8049c2c:	90                   	nop
 8049c2d:	90                   	nop
 8049c2e:	90                   	nop
 8049c2f:	90                   	nop

08049c30 <__do_global_ctors_aux>:
 8049c30:	55                   	push   %ebp
 8049c31:	89 e5                	mov    %esp,%ebp
 8049c33:	53                   	push   %ebx
 8049c34:	83 ec 04             	sub    $0x4,%esp
 8049c37:	a1 00 b0 04 08       	mov    0x804b000,%eax
 8049c3c:	83 f8 ff             	cmp    $0xffffffff,%eax
 8049c3f:	74 13                	je     8049c54 <__do_global_ctors_aux+0x24>
 8049c41:	bb 00 b0 04 08       	mov    $0x804b000,%ebx
 8049c46:	66 90                	xchg   %ax,%ax
 8049c48:	83 eb 04             	sub    $0x4,%ebx
 8049c4b:	ff d0                	call   *%eax
 8049c4d:	8b 03                	mov    (%ebx),%eax
 8049c4f:	83 f8 ff             	cmp    $0xffffffff,%eax
 8049c52:	75 f4                	jne    8049c48 <__do_global_ctors_aux+0x18>
 8049c54:	83 c4 04             	add    $0x4,%esp
 8049c57:	5b                   	pop    %ebx
 8049c58:	5d                   	pop    %ebp
 8049c59:	c3                   	ret    
 8049c5a:	90                   	nop
 8049c5b:	90                   	nop

Disassembly of section .fini:

08049c5c <_fini>:
 8049c5c:	55                   	push   %ebp
 8049c5d:	89 e5                	mov    %esp,%ebp
 8049c5f:	53                   	push   %ebx
 8049c60:	83 ec 04             	sub    $0x4,%esp
 8049c63:	e8 00 00 00 00       	call   8049c68 <_fini+0xc>
 8049c68:	5b                   	pop    %ebx
 8049c69:	81 c3 78 14 00 00    	add    $0x1478,%ebx
 8049c6f:	e8 1c ee ff ff       	call   8048a90 <__do_global_dtors_aux>
 8049c74:	59                   	pop    %ecx
 8049c75:	5b                   	pop    %ebx
 8049c76:	c9                   	leave  
 8049c77:	c3                   	ret    
